Archive member included because of file (symbol)

C:/devkitPro/libnds/lib\libfat.a(libfat.o)
                              main.o (fatInitDefault)
C:/devkitPro/libnds/lib\libfat.a(partition.o)
                              C:/devkitPro/libnds/lib\libfat.a(libfat.o) (_FAT_partition_setDefaultInterface)
C:/devkitPro/libnds/lib\libfat.a(disc.o)
                              C:/devkitPro/libnds/lib\libfat.a(partition.o) (_FAT_disc_gbaSlotFindInterface)
C:/devkitPro/libnds/lib\libfat.a(io_m3cf.o)
                              C:/devkitPro/libnds/lib\libfat.a(disc.o) (_io_m3cf)
C:/devkitPro/libnds/lib\libfat.a(io_m3sd.o)
                              C:/devkitPro/libnds/lib\libfat.a(disc.o) (_io_m3sd)
C:/devkitPro/libnds/lib\libfat.a(io_mpcf.o)
                              C:/devkitPro/libnds/lib\libfat.a(disc.o) (_io_mpcf)
C:/devkitPro/libnds/lib\libfat.a(io_njsd.o)
                              C:/devkitPro/libnds/lib\libfat.a(disc.o) (_io_njsd)
C:/devkitPro/libnds/lib\libfat.a(io_nmmc.o)
                              C:/devkitPro/libnds/lib\libfat.a(disc.o) (_io_nmmc)
C:/devkitPro/libnds/lib\libfat.a(io_sccf.o)
                              C:/devkitPro/libnds/lib\libfat.a(disc.o) (_io_sccf)
C:/devkitPro/libnds/lib\libfat.a(io_scsd.o)
                              C:/devkitPro/libnds/lib\libfat.a(disc.o) (_io_scsd)
C:/devkitPro/libnds/lib\libfat.a(io_sd_common.o)
                              C:/devkitPro/libnds/lib\libfat.a(io_scsd.o) (_SD_CRC7)
C:/devkitPro/libnds/lib\libfat.a(io_dldi.o)
                              C:/devkitPro/libnds/lib\libfat.a(disc.o) (_io_dldi)
C:/devkitPro/libnds/lib\libfat.a(io_scsd_s.o)
                              C:/devkitPro/libnds/lib\libfat.a(io_scsd.o) (_SCSD_writeData_s)
C:/devkitPro/libnds/lib\libfat.a(cache.o)
                              C:/devkitPro/libnds/lib\libfat.a(partition.o) (_FAT_cache_invalidate)
C:/devkitPro/libnds/lib\libfat.a(fatdir.o)
                              C:/devkitPro/libnds/lib\libfat.a(libfat.o) (_FAT_link_r)
C:/devkitPro/libnds/lib\libfat.a(fatfile.o)
                              C:/devkitPro/libnds/lib\libfat.a(libfat.o) (_FAT_fstat_r)
C:/devkitPro/libnds/lib\libfat.a(file_allocation_table.o)
                              C:/devkitPro/libnds/lib\libfat.a(fatfile.o) (_FAT_fat_nextCluster)
C:/devkitPro/libnds/lib\libfat.a(filetime.o)
                              C:/devkitPro/libnds/lib\libfat.a(fatdir.o) (_FAT_filetime_getTimeFromRTC)
C:/devkitPro/libnds/lib\libfat.a(io_cf_common.o)
                              C:/devkitPro/libnds/lib\libfat.a(io_m3cf.o) (_CF_isInserted)
C:/devkitPro/libnds/lib\libfat.a(io_m3_common.o)
                              C:/devkitPro/libnds/lib\libfat.a(io_m3cf.o) (_M3_changeMode)
C:/devkitPro/libnds/lib\libfat.a(io_sc_common.o)
                              C:/devkitPro/libnds/lib\libfat.a(io_sccf.o) (_SC_changeMode)
C:/devkitPro/libnds/lib\libfat.a(directory.o)
                              C:/devkitPro/libnds/lib\libfat.a(fatdir.o) (_FAT_directory_entryGetCluster)
C:/devkitPro/libnds/lib\libnds9.a(COS.o)
                              main.o (COS_bin)
C:/devkitPro/libnds/lib\libnds9.a(console.o)
                              main.o (consoleClear)
C:/devkitPro/libnds/lib\libnds9.a(keys.o)
                              main.o (keysHeld)
C:/devkitPro/libnds/lib\libnds9.a(video.o)
                              main.o (vramSetMainBanks)
C:/devkitPro/libnds/lib\libnds9.a(card.o)
                              C:/devkitPro/libnds/lib\libfat.a(io_nmmc.o) (cardWriteCommand)
C:/devkitPro/libnds/lib\libnds9.a(interrupts.o)
                              main.o (irqSet)
C:/devkitPro/libnds/lib\libnds9.a(biosCalls.o)
                              Timer.o (swiDelay)
C:/devkitPro/libnds/lib\libnds9.a(interruptDispatcher.o)
                              C:/devkitPro/libnds/lib\libnds9.a(interrupts.o) (IntrMain)
C:/devkitPro/libnds/lib\libnds9.a(default_font.o)
                              C:/devkitPro/libnds/lib\libnds9.a(console.o) (default_font_bin)
c:/devkitpro/devkitarm/bin/../lib/gcc/arm-eabi/4.1.1\libgcc.a(_udivsi3.o)
                              main.o (__aeabi_uidiv)
c:/devkitpro/devkitarm/bin/../lib/gcc/arm-eabi/4.1.1\libgcc.a(_divsi3.o)
                              C:/devkitPro/libnds/lib\libfat.a(directory.o) (__aeabi_idiv)
c:/devkitpro/devkitarm/bin/../lib/gcc/arm-eabi/4.1.1\libgcc.a(_dvmd_tls.o)
                              c:/devkitpro/devkitarm/bin/../lib/gcc/arm-eabi/4.1.1\libgcc.a(_udivsi3.o) (__div0)
c:/devkitpro/devkitarm/bin/../lib/gcc/arm-eabi/4.1.1\libgcc.a(_call_via_rX.o)
                              c:/devkitpro/devkitarm/bin/../lib/gcc/arm-eabi/4.1.1/../../../../arm-eabi/lib/ds_arm9_crt0.o (_call_via_r3)
c:/devkitpro/devkitarm/bin/../lib/gcc/arm-eabi/4.1.1/../../../../arm-eabi/lib\libg.a(lib_a-calloc.o)
                              Pico.o (calloc)
c:/devkitpro/devkitarm/bin/../lib/gcc/arm-eabi/4.1.1/../../../../arm-eabi/lib\libg.a(lib_a-callocr.o)
                              c:/devkitpro/devkitarm/bin/../lib/gcc/arm-eabi/4.1.1/../../../../arm-eabi/lib\libg.a(lib_a-calloc.o) (_calloc_r)
c:/devkitpro/devkitarm/bin/../lib/gcc/arm-eabi/4.1.1/../../../../arm-eabi/lib\libg.a(lib_a-ctype_.o)
                              C:/devkitPro/libnds/lib\libfat.a(partition.o) (__ctype_ptr)
c:/devkitpro/devkitarm/bin/../lib/gcc/arm-eabi/4.1.1/../../../../arm-eabi/lib\libg.a(lib_a-fclose.o)
                              main.o (fclose)
c:/devkitpro/devkitarm/bin/../lib/gcc/arm-eabi/4.1.1/../../../../arm-eabi/lib\libg.a(lib_a-fflush.o)
                              c:/devkitpro/devkitarm/bin/../lib/gcc/arm-eabi/4.1.1/../../../../arm-eabi/lib\libg.a(lib_a-fclose.o) (fflush)
c:/devkitpro/devkitarm/bin/../lib/gcc/arm-eabi/4.1.1/../../../../arm-eabi/lib\libg.a(lib_a-findfp.o)
                              c:/devkitpro/devkitarm/bin/../lib/gcc/arm-eabi/4.1.1/../../../../arm-eabi/lib\libg.a(lib_a-fclose.o) (__sfp_lock_acquire)
c:/devkitpro/devkitarm/bin/../lib/gcc/arm-eabi/4.1.1/../../../../arm-eabi/lib\libg.a(lib_a-fopen.o)
                              file.o (fopen)
c:/devkitpro/devkitarm/bin/../lib/gcc/arm-eabi/4.1.1/../../../../arm-eabi/lib\libg.a(lib_a-fread.o)
                              main.o (fread)
c:/devkitpro/devkitarm/bin/../lib/gcc/arm-eabi/4.1.1/../../../../arm-eabi/lib\libg.a(lib_a-freer.o)
                              c:/devkitpro/devkitarm/bin/../lib/gcc/arm-eabi/4.1.1/../../../../arm-eabi/lib\libg.a(lib_a-fclose.o) (_free_r)
c:/devkitpro/devkitarm/bin/../lib/gcc/arm-eabi/4.1.1/../../../../arm-eabi/lib\libg.a(lib_a-fseek.o)
                              c:/devkitpro/devkitarm/bin/../lib/gcc/arm-eabi/4.1.1/../../../../arm-eabi/lib\libg.a(lib_a-fopen.o) (_fseek_r)
c:/devkitpro/devkitarm/bin/../lib/gcc/arm-eabi/4.1.1/../../../../arm-eabi/lib\libg.a(lib_a-fstatr.o)
                              c:/devkitpro/devkitarm/bin/../lib/gcc/arm-eabi/4.1.1/../../../../arm-eabi/lib\libg.a(lib_a-fseek.o) (_fstat_r)
c:/devkitpro/devkitarm/bin/../lib/gcc/arm-eabi/4.1.1/../../../../arm-eabi/lib\libg.a(lib_a-ftell.o)
                              main.o (ftell)
c:/devkitpro/devkitarm/bin/../lib/gcc/arm-eabi/4.1.1/../../../../arm-eabi/lib\libg.a(lib_a-fwalk.o)
                              c:/devkitpro/devkitarm/bin/../lib/gcc/arm-eabi/4.1.1/../../../../arm-eabi/lib\libg.a(lib_a-fflush.o) (_fwalk)
c:/devkitpro/devkitarm/bin/../lib/gcc/arm-eabi/4.1.1/../../../../arm-eabi/lib\libg.a(lib_a-fwrite.o)
                              main.o (fwrite)
c:/devkitpro/devkitarm/bin/../lib/gcc/arm-eabi/4.1.1/../../../../arm-eabi/lib\libg.a(lib_a-impure.o)
                              C:/devkitPro/libnds/lib\libnds9.a(console.o) (_impure_ptr)
c:/devkitpro/devkitarm/bin/../lib/gcc/arm-eabi/4.1.1/../../../../arm-eabi/lib\libg.a(lib_a-init.o)
                              c:/devkitpro/devkitarm/bin/../lib/gcc/arm-eabi/4.1.1/../../../../arm-eabi/lib/ds_arm9_crt0.o (__libc_init_array)
c:/devkitpro/devkitarm/bin/../lib/gcc/arm-eabi/4.1.1/../../../../arm-eabi/lib\libg.a(lib_a-iprintf.o)
                              file.o (iprintf)
c:/devkitpro/devkitarm/bin/../lib/gcc/arm-eabi/4.1.1/../../../../arm-eabi/lib\libg.a(lib_a-makebuf.o)
                              c:/devkitpro/devkitarm/bin/../lib/gcc/arm-eabi/4.1.1/../../../../arm-eabi/lib\libg.a(lib_a-fseek.o) (__smakebuf)
c:/devkitpro/devkitarm/bin/../lib/gcc/arm-eabi/4.1.1/../../../../arm-eabi/lib\libg.a(lib_a-malloc.o)
                              file.o (free)
c:/devkitpro/devkitarm/bin/../lib/gcc/arm-eabi/4.1.1/../../../../arm-eabi/lib\libg.a(lib_a-mallocr.o)
                              c:/devkitpro/devkitarm/bin/../lib/gcc/arm-eabi/4.1.1/../../../../arm-eabi/lib\libg.a(lib_a-callocr.o) (_malloc_r)
c:/devkitpro/devkitarm/bin/../lib/gcc/arm-eabi/4.1.1/../../../../arm-eabi/lib\libg.a(lib_a-memcmp.o)
                              Pico.o (memcmp)
c:/devkitpro/devkitarm/bin/../lib/gcc/arm-eabi/4.1.1/../../../../arm-eabi/lib\libg.a(lib_a-memcpy.o)
                              main.o (memcpy)
c:/devkitpro/devkitarm/bin/../lib/gcc/arm-eabi/4.1.1/../../../../arm-eabi/lib\libg.a(lib_a-memmove.o)
                              C:/devkitPro/libnds/lib\libfat.a(directory.o) (memmove)
c:/devkitpro/devkitarm/bin/../lib/gcc/arm-eabi/4.1.1/../../../../arm-eabi/lib\libg.a(lib_a-memset.o)
                              Area.o (memset)
c:/devkitpro/devkitarm/bin/../lib/gcc/arm-eabi/4.1.1/../../../../arm-eabi/lib\libg.a(lib_a-mlock.o)
                              c:/devkitpro/devkitarm/bin/../lib/gcc/arm-eabi/4.1.1/../../../../arm-eabi/lib\libg.a(lib_a-freer.o) (__malloc_lock)
c:/devkitpro/devkitarm/bin/../lib/gcc/arm-eabi/4.1.1/../../../../arm-eabi/lib\libg.a(lib_a-openr.o)
                              c:/devkitpro/devkitarm/bin/../lib/gcc/arm-eabi/4.1.1/../../../../arm-eabi/lib\libg.a(lib_a-fopen.o) (_open_r)
c:/devkitpro/devkitarm/bin/../lib/gcc/arm-eabi/4.1.1/../../../../arm-eabi/lib\libg.a(lib_a-printf.o)
                              file.o (printf)
c:/devkitpro/devkitarm/bin/../lib/gcc/arm-eabi/4.1.1/../../../../arm-eabi/lib\libg.a(lib_a-reent.o)
                              c:/devkitpro/devkitarm/bin/../lib/gcc/arm-eabi/4.1.1/../../../../arm-eabi/lib\libg.a(lib_a-fstatr.o) (errno)
c:/devkitpro/devkitarm/bin/../lib/gcc/arm-eabi/4.1.1/../../../../arm-eabi/lib\libg.a(lib_a-refill.o)
                              c:/devkitpro/devkitarm/bin/../lib/gcc/arm-eabi/4.1.1/../../../../arm-eabi/lib\libg.a(lib_a-fread.o) (__srefill_r)
c:/devkitpro/devkitarm/bin/../lib/gcc/arm-eabi/4.1.1/../../../../arm-eabi/lib\libg.a(lib_a-sbrkr.o)
                              c:/devkitpro/devkitarm/bin/../lib/gcc/arm-eabi/4.1.1/../../../../arm-eabi/lib\libg.a(lib_a-freer.o) (_sbrk_r)
c:/devkitpro/devkitarm/bin/../lib/gcc/arm-eabi/4.1.1/../../../../arm-eabi/lib\libg.a(lib_a-setvbuf.o)
                              C:/devkitPro/libnds/lib\libnds9.a(console.o) (setvbuf)
c:/devkitpro/devkitarm/bin/../lib/gcc/arm-eabi/4.1.1/../../../../arm-eabi/lib\libg.a(lib_a-siprintf.o)
                              file.o (siprintf)
c:/devkitpro/devkitarm/bin/../lib/gcc/arm-eabi/4.1.1/../../../../arm-eabi/lib\libg.a(lib_a-siscanf.o)
                              C:/devkitPro/libnds/lib\libnds9.a(console.o) (siscanf)
c:/devkitpro/devkitarm/bin/../lib/gcc/arm-eabi/4.1.1/../../../../arm-eabi/lib\libg.a(lib_a-sprintf.o)
                              Disa.o (sprintf)
c:/devkitpro/devkitarm/bin/../lib/gcc/arm-eabi/4.1.1/../../../../arm-eabi/lib\libg.a(lib_a-stdio.o)
                              c:/devkitpro/devkitarm/bin/../lib/gcc/arm-eabi/4.1.1/../../../../arm-eabi/lib\libg.a(lib_a-findfp.o) (__sclose)
c:/devkitpro/devkitarm/bin/../lib/gcc/arm-eabi/4.1.1/../../../../arm-eabi/lib\libg.a(lib_a-strcasecmp.o)
                              file.o (strcasecmp)
c:/devkitpro/devkitarm/bin/../lib/gcc/arm-eabi/4.1.1/../../../../arm-eabi/lib\libg.a(lib_a-strcat.o)
                              main.o (strcat)
c:/devkitpro/devkitarm/bin/../lib/gcc/arm-eabi/4.1.1/../../../../arm-eabi/lib\libg.a(lib_a-strchr.o)
                              C:/devkitPro/libnds/lib\libfat.a(partition.o) (strchr)
c:/devkitpro/devkitarm/bin/../lib/gcc/arm-eabi/4.1.1/../../../../arm-eabi/lib\libg.a(lib_a-strcpy.o)
                              file.o (strcpy)
c:/devkitpro/devkitarm/bin/../lib/gcc/arm-eabi/4.1.1/../../../../arm-eabi/lib\libg.a(lib_a-strlcat.o)
                              file.o (strlcat)
c:/devkitpro/devkitarm/bin/../lib/gcc/arm-eabi/4.1.1/../../../../arm-eabi/lib\libg.a(lib_a-strlcpy.o)
                              file.o (strlcpy)
c:/devkitpro/devkitarm/bin/../lib/gcc/arm-eabi/4.1.1/../../../../arm-eabi/lib\libg.a(lib_a-strlen.o)
                              file.o (strlen)
c:/devkitpro/devkitarm/bin/../lib/gcc/arm-eabi/4.1.1/../../../../arm-eabi/lib\libg.a(lib_a-strncasecmp.o)
                              C:/devkitPro/libnds/lib\libfat.a(directory.o) (strncasecmp)
c:/devkitpro/devkitarm/bin/../lib/gcc/arm-eabi/4.1.1/../../../../arm-eabi/lib\libg.a(lib_a-strncat.o)
                              file.o (strncat)
c:/devkitpro/devkitarm/bin/../lib/gcc/arm-eabi/4.1.1/../../../../arm-eabi/lib\libg.a(lib_a-strncmp.o)
                              C:/devkitPro/libnds/lib\libfat.a(partition.o) (strncmp)
c:/devkitpro/devkitarm/bin/../lib/gcc/arm-eabi/4.1.1/../../../../arm-eabi/lib\libg.a(lib_a-strncpy.o)
                              file.o (strncpy)
c:/devkitpro/devkitarm/bin/../lib/gcc/arm-eabi/4.1.1/../../../../arm-eabi/lib\libg.a(lib_a-strnlen.o)
                              C:/devkitPro/libnds/lib\libfat.a(directory.o) (strnlen)
c:/devkitpro/devkitarm/bin/../lib/gcc/arm-eabi/4.1.1/../../../../arm-eabi/lib\libg.a(lib_a-strpbrk.o)
                              C:/devkitPro/libnds/lib\libfat.a(directory.o) (strpbrk)
c:/devkitpro/devkitarm/bin/../lib/gcc/arm-eabi/4.1.1/../../../../arm-eabi/lib\libg.a(lib_a-strrchr.o)
                              C:/devkitPro/libnds/lib\libfat.a(fatdir.o) (strrchr)
c:/devkitpro/devkitarm/bin/../lib/gcc/arm-eabi/4.1.1/../../../../arm-eabi/lib\libg.a(lib_a-strtol.o)
                              Pico.o (strtol)
c:/devkitpro/devkitarm/bin/../lib/gcc/arm-eabi/4.1.1/../../../../arm-eabi/lib\libg.a(lib_a-strupr.o)
                              C:/devkitPro/libnds/lib\libfat.a(directory.o) (strupr)
c:/devkitpro/devkitarm/bin/../lib/gcc/arm-eabi/4.1.1/../../../../arm-eabi/lib\libg.a(lib_a-vfiprintf.o)
                              c:/devkitpro/devkitarm/bin/../lib/gcc/arm-eabi/4.1.1/../../../../arm-eabi/lib\libg.a(lib_a-iprintf.o) (_vfiprintf_r)
c:/devkitpro/devkitarm/bin/../lib/gcc/arm-eabi/4.1.1/../../../../arm-eabi/lib\libg.a(lib_a-vfiscanf.o)
                              c:/devkitpro/devkitarm/bin/../lib/gcc/arm-eabi/4.1.1/../../../../arm-eabi/lib\libg.a(lib_a-siscanf.o) (__svfiscanf_r)
c:/devkitpro/devkitarm/bin/../lib/gcc/arm-eabi/4.1.1/../../../../arm-eabi/lib\libg.a(lib_a-vfprintf.o)
                              c:/devkitpro/devkitarm/bin/../lib/gcc/arm-eabi/4.1.1/../../../../arm-eabi/lib\libg.a(lib_a-printf.o) (_vfprintf_r)
c:/devkitpro/devkitarm/bin/../lib/gcc/arm-eabi/4.1.1/../../../../arm-eabi/lib\libg.a(lib_a-wcrtomb.o)
                              c:/devkitpro/devkitarm/bin/../lib/gcc/arm-eabi/4.1.1/../../../../arm-eabi/lib\libg.a(lib_a-vfiprintf.o) (_wcrtomb_r)
c:/devkitpro/devkitarm/bin/../lib/gcc/arm-eabi/4.1.1/../../../../arm-eabi/lib\libg.a(lib_a-wcsrtombs.o)
                              c:/devkitpro/devkitarm/bin/../lib/gcc/arm-eabi/4.1.1/../../../../arm-eabi/lib\libg.a(lib_a-vfiprintf.o) (_wcsrtombs_r)
c:/devkitpro/devkitarm/bin/../lib/gcc/arm-eabi/4.1.1/../../../../arm-eabi/lib\libg.a(lib_a-wctomb_r.o)
                              c:/devkitpro/devkitarm/bin/../lib/gcc/arm-eabi/4.1.1/../../../../arm-eabi/lib\libg.a(lib_a-wcrtomb.o) (_wctomb_r)
c:/devkitpro/devkitarm/bin/../lib/gcc/arm-eabi/4.1.1/../../../../arm-eabi/lib\libg.a(lib_a-writer.o)
                              c:/devkitpro/devkitarm/bin/../lib/gcc/arm-eabi/4.1.1/../../../../arm-eabi/lib\libg.a(lib_a-stdio.o) (_write_r)
c:/devkitpro/devkitarm/bin/../lib/gcc/arm-eabi/4.1.1/../../../../arm-eabi/lib\libg.a(lib_a-wsetup.o)
                              c:/devkitpro/devkitarm/bin/../lib/gcc/arm-eabi/4.1.1/../../../../arm-eabi/lib\libg.a(lib_a-vfiprintf.o) (__swsetup)
c:/devkitpro/devkitarm/bin/../lib/gcc/arm-eabi/4.1.1/../../../../arm-eabi/lib\libg.a(lib_a-closer.o)
                              c:/devkitpro/devkitarm/bin/../lib/gcc/arm-eabi/4.1.1/../../../../arm-eabi/lib\libg.a(lib_a-stdio.o) (_close_r)
c:/devkitpro/devkitarm/bin/../lib/gcc/arm-eabi/4.1.1/../../../../arm-eabi/lib\libg.a(lib_a-dtoa.o)
                              c:/devkitpro/devkitarm/bin/../lib/gcc/arm-eabi/4.1.1/../../../../arm-eabi/lib\libg.a(lib_a-vfprintf.o) (_dtoa_r)
c:/devkitpro/devkitarm/bin/../lib/gcc/arm-eabi/4.1.1/../../../../arm-eabi/lib\libg.a(lib_a-flags.o)
                              c:/devkitpro/devkitarm/bin/../lib/gcc/arm-eabi/4.1.1/../../../../arm-eabi/lib\libg.a(lib_a-fopen.o) (__sflags)
c:/devkitpro/devkitarm/bin/../lib/gcc/arm-eabi/4.1.1/../../../../arm-eabi/lib\libg.a(lib_a-fvwrite.o)
                              c:/devkitpro/devkitarm/bin/../lib/gcc/arm-eabi/4.1.1/../../../../arm-eabi/lib\libg.a(lib_a-fwrite.o) (__sfvwrite_r)
c:/devkitpro/devkitarm/bin/../lib/gcc/arm-eabi/4.1.1/../../../../arm-eabi/lib\libg.a(lib_a-iswspace.o)
                              c:/devkitpro/devkitarm/bin/../lib/gcc/arm-eabi/4.1.1/../../../../arm-eabi/lib\libg.a(lib_a-vfiscanf.o) (iswspace)
c:/devkitpro/devkitarm/bin/../lib/gcc/arm-eabi/4.1.1/../../../../arm-eabi/lib\libg.a(lib_a-locale.o)
                              c:/devkitpro/devkitarm/bin/../lib/gcc/arm-eabi/4.1.1/../../../../arm-eabi/lib\libg.a(lib_a-vfprintf.o) (localeconv)
c:/devkitpro/devkitarm/bin/../lib/gcc/arm-eabi/4.1.1/../../../../arm-eabi/lib\libg.a(lib_a-lseekr.o)
                              c:/devkitpro/devkitarm/bin/../lib/gcc/arm-eabi/4.1.1/../../../../arm-eabi/lib\libg.a(lib_a-stdio.o) (_lseek_r)
c:/devkitpro/devkitarm/bin/../lib/gcc/arm-eabi/4.1.1/../../../../arm-eabi/lib\libg.a(lib_a-mbrtowc.o)
                              c:/devkitpro/devkitarm/bin/../lib/gcc/arm-eabi/4.1.1/../../../../arm-eabi/lib\libg.a(lib_a-vfiscanf.o) (_mbrtowc_r)
c:/devkitpro/devkitarm/bin/../lib/gcc/arm-eabi/4.1.1/../../../../arm-eabi/lib\libg.a(lib_a-mbtowc_r.o)
                              c:/devkitpro/devkitarm/bin/../lib/gcc/arm-eabi/4.1.1/../../../../arm-eabi/lib\libg.a(lib_a-mbrtowc.o) (_mbtowc_r)
c:/devkitpro/devkitarm/bin/../lib/gcc/arm-eabi/4.1.1/../../../../arm-eabi/lib\libg.a(lib_a-memchr.o)
                              c:/devkitpro/devkitarm/bin/../lib/gcc/arm-eabi/4.1.1/../../../../arm-eabi/lib\libg.a(lib_a-vfiprintf.o) (memchr)
c:/devkitpro/devkitarm/bin/../lib/gcc/arm-eabi/4.1.1/../../../../arm-eabi/lib\libg.a(lib_a-mprec.o)
                              c:/devkitpro/devkitarm/bin/../lib/gcc/arm-eabi/4.1.1/../../../../arm-eabi/lib\libg.a(lib_a-dtoa.o) (_Bfree)
c:/devkitpro/devkitarm/bin/../lib/gcc/arm-eabi/4.1.1/../../../../arm-eabi/lib\libg.a(lib_a-readr.o)
                              c:/devkitpro/devkitarm/bin/../lib/gcc/arm-eabi/4.1.1/../../../../arm-eabi/lib\libg.a(lib_a-stdio.o) (_read_r)
c:/devkitpro/devkitarm/bin/../lib/gcc/arm-eabi/4.1.1/../../../../arm-eabi/lib\libg.a(lib_a-reallocr.o)
                              c:/devkitpro/devkitarm/bin/../lib/gcc/arm-eabi/4.1.1/../../../../arm-eabi/lib\libg.a(lib_a-fvwrite.o) (_realloc_r)
c:/devkitpro/devkitarm/bin/../lib/gcc/arm-eabi/4.1.1/../../../../arm-eabi/lib\libg.a(lib_a-s_isinfd.o)
                              c:/devkitpro/devkitarm/bin/../lib/gcc/arm-eabi/4.1.1/../../../../arm-eabi/lib\libg.a(lib_a-vfprintf.o) (__isinfd)
c:/devkitpro/devkitarm/bin/../lib/gcc/arm-eabi/4.1.1/../../../../arm-eabi/lib\libg.a(lib_a-s_isnand.o)
                              c:/devkitpro/devkitarm/bin/../lib/gcc/arm-eabi/4.1.1/../../../../arm-eabi/lib\libg.a(lib_a-vfprintf.o) (__isnand)
c:/devkitpro/devkitarm/bin/../lib/gcc/arm-eabi/4.1.1/../../../../arm-eabi/lib\libg.a(lib_a-sccl.o)
                              c:/devkitpro/devkitarm/bin/../lib/gcc/arm-eabi/4.1.1/../../../../arm-eabi/lib\libg.a(lib_a-vfiscanf.o) (__sccl)
c:/devkitpro/devkitarm/bin/../lib/gcc/arm-eabi/4.1.1/../../../../arm-eabi/lib\libg.a(lib_a-strcmp.o)
                              c:/devkitpro/devkitarm/bin/../lib/gcc/arm-eabi/4.1.1/../../../../arm-eabi/lib\libg.a(lib_a-wctomb_r.o) (strcmp)
c:/devkitpro/devkitarm/bin/../lib/gcc/arm-eabi/4.1.1/../../../../arm-eabi/lib\libg.a(lib_a-strtoul.o)
                              c:/devkitpro/devkitarm/bin/../lib/gcc/arm-eabi/4.1.1/../../../../arm-eabi/lib\libg.a(lib_a-vfiscanf.o) (_strtoul_r)
c:/devkitpro/devkitarm/bin/../lib/gcc/arm-eabi/4.1.1/../../../../arm-eabi/lib\libg.a(lib_a-ungetc.o)
                              c:/devkitpro/devkitarm/bin/../lib/gcc/arm-eabi/4.1.1/../../../../arm-eabi/lib\libg.a(lib_a-vfiscanf.o) (ungetc)
c:/devkitpro/devkitarm/bin/../lib/gcc/arm-eabi/4.1.1\libgcc.a(_addsubdf3.o)
                              c:/devkitpro/devkitarm/bin/../lib/gcc/arm-eabi/4.1.1/../../../../arm-eabi/lib\libg.a(lib_a-dtoa.o) (__aeabi_dsub)
c:/devkitpro/devkitarm/bin/../lib/gcc/arm-eabi/4.1.1\libgcc.a(_muldivdf3.o)
                              c:/devkitpro/devkitarm/bin/../lib/gcc/arm-eabi/4.1.1/../../../../arm-eabi/lib\libg.a(lib_a-dtoa.o) (__aeabi_dmul)
c:/devkitpro/devkitarm/bin/../lib/gcc/arm-eabi/4.1.1\libgcc.a(_cmpdf2.o)
                              c:/devkitpro/devkitarm/bin/../lib/gcc/arm-eabi/4.1.1/../../../../arm-eabi/lib\libg.a(lib_a-vfprintf.o) (__aeabi_dcmpeq)
c:/devkitpro/devkitarm/bin/../lib/gcc/arm-eabi/4.1.1\libgcc.a(_fixdfsi.o)
                              c:/devkitpro/devkitarm/bin/../lib/gcc/arm-eabi/4.1.1/../../../../arm-eabi/lib\libg.a(lib_a-dtoa.o) (__aeabi_d2iz)
c:/devkitpro/devkitarm/bin/../lib/gcc/arm-eabi/4.1.1/../../../../arm-eabi/lib\libsysbase.a(iosupport.o)
                              C:/devkitPro/libnds/lib\libfat.a(libfat.o) (AddDevice)
c:/devkitpro/devkitarm/bin/../lib/gcc/arm-eabi/4.1.1/../../../../arm-eabi/lib\libsysbase.a(close.o)
                              c:/devkitpro/devkitarm/bin/../lib/gcc/arm-eabi/4.1.1/../../../../arm-eabi/lib\libg.a(lib_a-closer.o) (_close)
c:/devkitpro/devkitarm/bin/../lib/gcc/arm-eabi/4.1.1/../../../../arm-eabi/lib\libsysbase.a(fstat.o)
                              c:/devkitpro/devkitarm/bin/../lib/gcc/arm-eabi/4.1.1/../../../../arm-eabi/lib\libg.a(lib_a-fstatr.o) (_fstat)
c:/devkitpro/devkitarm/bin/../lib/gcc/arm-eabi/4.1.1/../../../../arm-eabi/lib\libsysbase.a(isatty.o)
                              c:/devkitpro/devkitarm/bin/../lib/gcc/arm-eabi/4.1.1/../../../../arm-eabi/lib\libg.a(lib_a-makebuf.o) (isatty)
c:/devkitpro/devkitarm/bin/../lib/gcc/arm-eabi/4.1.1/../../../../arm-eabi/lib\libsysbase.a(lseek.o)
                              c:/devkitpro/devkitarm/bin/../lib/gcc/arm-eabi/4.1.1/../../../../arm-eabi/lib\libg.a(lib_a-lseekr.o) (_lseek)
c:/devkitpro/devkitarm/bin/../lib/gcc/arm-eabi/4.1.1/../../../../arm-eabi/lib\libsysbase.a(open.o)
                              c:/devkitpro/devkitarm/bin/../lib/gcc/arm-eabi/4.1.1/../../../../arm-eabi/lib\libg.a(lib_a-openr.o) (_open)
c:/devkitpro/devkitarm/bin/../lib/gcc/arm-eabi/4.1.1/../../../../arm-eabi/lib\libsysbase.a(read.o)
                              c:/devkitpro/devkitarm/bin/../lib/gcc/arm-eabi/4.1.1/../../../../arm-eabi/lib\libg.a(lib_a-readr.o) (_read)
c:/devkitpro/devkitarm/bin/../lib/gcc/arm-eabi/4.1.1/../../../../arm-eabi/lib\libsysbase.a(sbrk.o)
                              c:/devkitpro/devkitarm/bin/../lib/gcc/arm-eabi/4.1.1/../../../../arm-eabi/lib\libg.a(lib_a-sbrkr.o) (_sbrk)
c:/devkitpro/devkitarm/bin/../lib/gcc/arm-eabi/4.1.1/../../../../arm-eabi/lib\libsysbase.a(write.o)
                              c:/devkitpro/devkitarm/bin/../lib/gcc/arm-eabi/4.1.1/../../../../arm-eabi/lib\libg.a(lib_a-writer.o) (_write)
c:/devkitpro/devkitarm/bin/../lib/gcc/arm-eabi/4.1.1/../../../../arm-eabi/lib\libsysbase.a(malloc_vars.o)
                              c:/devkitpro/devkitarm/bin/../lib/gcc/arm-eabi/4.1.1/../../../../arm-eabi/lib/ds_arm9_crt0.o (fake_heap_end)
c:/devkitpro/devkitarm/bin/../lib/gcc/arm-eabi/4.1.1/../../../../arm-eabi/lib\libsysbase.a(chdir.o)
                              file.o (chdir)
c:/devkitpro/devkitarm/bin/../lib/gcc/arm-eabi/4.1.1/../../../../arm-eabi/lib\libsysbase.a(dir.o)
                              file.o (dirnext)

Allocating common symbols
Common symbol       size              file

errno               0x4               c:/devkitpro/devkitarm/bin/../lib/gcc/arm-eabi/4.1.1/../../../../arm-eabi/lib\libg.a(lib_a-reent.o)
fileName            0x100             file.o
HighCol             0x2d0             Draw.o
romfile             0x4               main.o
dir                 0x4               file.o
PicoPad             0x8               Pico.o
Pico                0x22268           Pico.o
SRam                0x10              Pico.o
PicoCpu             0x98              Sek.o

Memory Configuration

Name             Origin             Length             Attributes
rom              0x08000000         0x02000000
ewram            0x02000000         0x003ff000
dtcm             0x0b000000         0x00004000
itcm             0x01000000         0x00008000
*default*        0x00000000         0xffffffff

Linker script and memory map

                0x01000000                __itcm_start = 0x1000000
                0x023ff000                __ewram_end = 0x23ff000
                0x023ff000                __eheap_end = 0x23ff000
                0x0b000000                __dtcm_start = 0xb000000
                0x0b004000                __dtcm_top = 0xb004000
                0x0b003ff8                __irq_flags = (__dtcm_top - 0x8)
                0x0b003ffc                __irq_vector = (__dtcm_top - 0x4)
                0x0b003f00                __sp_svc = (__dtcm_top - 0x100)
                0x0b003e00                __sp_irq = (__sp_svc - 0x100)
                0x0b003d00                __sp_usr = (__sp_irq - 0x100)

.init           0x02000000      0x238
                0x02000000                __text_start = .
 *(.init)
 .init          0x02000000      0x220 c:/devkitpro/devkitarm/bin/../lib/gcc/arm-eabi/4.1.1/../../../../arm-eabi/lib/ds_arm9_crt0.o
                0x02000000                _start
 .init          0x02000220        0xc c:/devkitpro/devkitarm/bin/../lib/gcc/arm-eabi/4.1.1/crti.o
                0x02000220                _init
 .init          0x0200022c        0xc c:/devkitpro/devkitarm/bin/../lib/gcc/arm-eabi/4.1.1/crtn.o
                0x02000238                . = ALIGN (0x4)

.plt
 *(.plt)

.text           0x02000240    0x9f02c
 *(EXCLUDE_FILE(*.itcm*) .text)
 .text          0x02000240        0x0 c:/devkitpro/devkitarm/bin/../lib/gcc/arm-eabi/4.1.1/../../../../arm-eabi/lib/ds_arm9_crt0.o
 .text          0x02000240        0x0 c:/devkitpro/devkitarm/bin/../lib/gcc/arm-eabi/4.1.1/crti.o
 .text          0x02000240       0xa4 c:/devkitpro/devkitarm/bin/../lib/gcc/arm-eabi/4.1.1/crtbegin.o
 .text          0x020002e4      0xb9c file.o
                0x020005fc                freeFileList
                0x0200067c                addFile
                0x020002e4                updateCursor
                0x02000790                getFileList
                0x020004e8                showFileList
                0x02000338                scrollFile
                0x0200086c                loadFile
 .text          0x02000e80      0x1cc m3sd.o
                0x02000e80                resetMemory2_ARM9
 .text          0x0200104c     0x16bc main.o
                0x0200104c                UpdatePalette
                0x02001d24                on_irq
                0x02001634                LoadROMToMemory
                0x02001348                PrintRegion
                0x020011e4                ConvertToGrayscale
                0x02002218                EmulateFrame
                0x0200170c                InitInterruptHandler
                0x02001b28                EmulateInit
                0x020010bc                ChangeScaleMode
                0x02002340                main
                0x020012a8                processtimer
                0x02001d7c                EmulateExit
                0x0200173c                ChangeScreenPosition
                0x020016d8                FileChoose
                0x020013ec                bgupdate
                0x02001848                saveLoadGame
                0x020012ac                processvblank
                0x02001460                FindAppendedRom
 .text          0x02002708        0x0 mz80.o
 .text          0x02002708        0x0 sn76496.o
 .text          0x02002708        0x0 sound.o
 .text          0x02002708        0x0 ym2612.o
 .text          0x02002708      0x5fc Area.o
                0x020028b0                PmovState
                0x020027bc                PmovUpdate
 .text          0x02002d04      0x27c Cart.o
                0x02002d04                Byteswap
                0x02002dc4                DecodeSmd
                0x02002e80                PicoCartLoad
                0x02002d40                PicoCartInsert
 .text          0x02002f80     0x1f14 Disa.o
                0x02002f80                DisaGetEa
                0x02003450                DisaGet
 .text          0x02004e94     0x201c Draw.o
                0x020054a8                PicoLine
 .text          0x02006eb0        0x0 Draw2.o
 .text          0x02006eb0        0x0 Draw3.o
 .text          0x02006eb0     0x10bc Memory.o
                0x02007744                PicoRead32
                0x02007a94                z80_read
                0x020079c8                z80_write
                0x02007834                PicoRead16
                0x02007ba4                z80_write16
                0x02007388                PicoInitPc
                0x02006f14                PicoMemInit
                0x02007d40                z80_read16
 .text          0x02007f6c      0x7c8 Pico.o
                0x02007f6c                PicoFrameFull
                0x020086dc                PicoInit
                0x02007f94                PicoFrame
                0x02008334                PicoReset
                0x0200830c                PicoExit
 .text          0x02008734      0x148 Sek.o
                0x02008850                SekInit
                0x02008748                SekPc
                0x020087b8                SekReset
                0x02008734                SekInterrupt
                0x02008760                SekRun
                0x02008794                SekState
 .text          0x0200887c       0xa4 Timer.o
                0x02008908                Timer_Sleep
                0x020088b4                Timer_Init
                0x02008894                Timer_GetMS
 .text          0x02008920      0x1e0 Utils.o
                0x020089e0                PicuShrinkReverse
                0x02008920                PicuQuick
                0x0200896c                PicuShrink
                0x02008a54                PicuMerge
 .text          0x02008b00      0x664 VideoPort.o
                0x02008b00                PicoVideoRead
                0x02008f50                PicoVideoWrite
 .text          0x02009164    0x6fa88 Cyclone.o
                0x02009164                CycloneVer
                0x02009168                CycloneRun
 .text          0x02078bec     0xb130 DrZ80.o
                0x02078bf0                DrZ80Run
                0x02078bec                DrZ80Ver
 .text          0x02083d1c      0x11c ym2612_helper.o
                0x02083d1c                sum_outputs_mono
                0x02083d2c                sum_outputs_mono_mix
                0x02083d88                sum_outputs_stereo_mix
                0x02083d78                sum_outputs_stereo
 .text          0x02083e38        0x0 Draw2_asm.o
 .text          0x02083e38       0x9c C:/devkitPro/libnds/lib\libfat.a(libfat.o)
                0x02083e38                fatSetDefaultInterface
                0x02083e5c                fatMountCustomInterface
                0x02083e44                fatUnsafeUnmount
                0x02083e68                fatMountNormalInterface
                0x02083e50                fatUnmount
                0x02083ec4                fatInitDefault
                0x02083e74                fatInit
 .text          0x02083ed4      0x4d0 C:/devkitPro/libnds/lib\libfat.a(partition.o)
                0x02083f20                _FAT_partition_getPartitionFromPath
                0x02083ef8                _FAT_partition_setDefaultPartition
                0x020842d8                _FAT_partition_mountCustomInterface
                0x02083ffc                _FAT_partition_unmount
                0x02084338                _FAT_partition_mount
                0x02083ed4                _FAT_partition_setDefaultInterface
                0x02083f9c                _FAT_partition_unsafeUnmount
 .text          0x020843a4       0xb8 C:/devkitPro/libnds/lib\libfat.a(disc.o)
                0x02084420                _FAT_disc_findInterface
                0x020843e0                _FAT_disc_dsSlotFindInterface
                0x020843a4                _FAT_disc_gbaSlotFindInterface
 .text          0x0208445c       0x1c C:/devkitPro/libnds/lib\libfat.a(io_m3cf.o)
                0x0208445c                _M3CF_startup
 .text          0x02084478      0x528 C:/devkitPro/libnds/lib\libfat.a(io_m3sd.o)
                0x02084820                _M3SD_clearStatus
                0x020845f4                _M3SD_cmd_17byte_response
                0x020846f8                _M3SD_readSectors
                0x020846bc                _M3SD_isInserted
                0x02084844                _M3SD_writeSectors
                0x02084784                _M3SD_shutdown
                0x020845dc                _M3SD_cmd_6byte_response
                0x0208482c                _M3SD_startUp
 .text          0x020849a0       0x14 C:/devkitPro/libnds/lib\libfat.a(io_mpcf.o)
                0x020849a0                _MPCF_startup
 .text          0x020849b4      0x92c C:/devkitPro/libnds/lib\libfat.a(io_njsd.o)
                0x02084dc0                _NJSD_writeSectors
                0x02084da8                _NJSD_clearStatus
                0x02084d4c                _NJSD_cmd_6byte_response
                0x02084d7c                _NJSD_isInserted
                0x02085050                _NJSD_startup
                0x02084db4                _NJSD_shutdown
                0x020850ec                _NJSD_readSectors
                0x02084d64                _NJSD_cmd_17byte_response
 .text          0x020852e0      0x694 C:/devkitPro/libnds/lib\libfat.a(io_nmmc.o)
                0x020854c8                _NMMC_isInserted
                0x020855fc                _NMMC_writeSectors
                0x0208579c                _NMMC_startUp
                0x020854bc                _NMMC_shutdown
                0x02085440                _NMMC_clearStatus
                0x02085524                _NMMC_readSectors
 .text          0x02085974       0x18 C:/devkitPro/libnds/lib\libfat.a(io_sccf.o)
                0x02085974                _SCCF_startup
 .text          0x0208598c      0x388 C:/devkitPro/libnds/lib\libfat.a(io_scsd.o)
                0x02085a94                _SCSD_shutdown
                0x02085c0c                _SCSD_startUp
                0x02085b84                _SCSD_isInserted
                0x02085c00                _SCSD_clearStatus
                0x02085c20                _SCSD_cmd_17byte_response
                0x02085c38                _SCSD_cmd_6byte_response
                0x02085b14                _SCSD_readSectors
                0x02085c50                _SCSD_writeSectors
 .text          0x02085d14      0x258 C:/devkitPro/libnds/lib\libfat.a(io_sd_common.o)
                0x02085d14                _SD_CRC7
                0x02085d70                _SD_CRC16
                0x02085e6c                _SD_InitCard
 *fill*         0x02085f6c       0x14 ff
 .text          0x02085f80     0x8000 C:/devkitPro/libnds/lib\libfat.a(io_dldi.o)
                0x02085fe0                _io_dldi
 .text          0x0208df80       0xc0 C:/devkitPro/libnds/lib\libfat.a(io_scsd_s.o)
                0x0208df80                _SCSD_writeData_s
 .text          0x0208e040      0x2c0 C:/devkitPro/libnds/lib\libfat.a(cache.o)
                0x0208e104                _FAT_cache_flush
                0x0208e1e0                _FAT_cache_writePartialSector
                0x0208e150                _FAT_cache_invalidate
                0x0208e268                _FAT_cache_destructor
                0x0208e284                _FAT_cache_constructor
                0x0208e22c                _FAT_cache_readPartialSector
                0x0208e17c                _FAT_cache_eraseWritePartialSector
 .text          0x0208e300      0x708 C:/devkitPro/libnds/lib\libfat.a(fatdir.o)
                0x0208e3b8                _FAT_stat_r
                0x0208e31c                _FAT_dirnext_r
                0x0208e4a0                _FAT_unlink_r
                0x0208e68c                _FAT_rename_r
                0x0208e300                _FAT_link_r
                0x0208e30c                _FAT_dirclose_r
                0x0208e430                _FAT_chdir_r
                0x0208e384                _FAT_dirreset_r
                0x0208e5e8                _FAT_diropen_r
                0x0208e80c                _FAT_mkdir_r
 .text          0x0208ea08      0xc28 C:/devkitPro/libnds/lib\libfat.a(fatfile.o)
                0x0208f188                _FAT_write_r
                0x0208ea78                _FAT_seek_r
                0x0208ef40                _FAT_read_r
                0x0208ec88                _FAT_open_r
                0x0208eba8                _FAT_close_r
                0x0208ea08                _FAT_fstat_r
 .text          0x0208f630      0x398 C:/devkitPro/libnds/lib\libfat.a(file_allocation_table.o)
                0x0208f88c                _FAT_fat_clearLinks
                0x0208f630                _FAT_fat_nextCluster
                0x0208f960                _FAT_fat_linkFreeClusterCleared
                0x0208f8dc                _FAT_fat_linkFreeCluster
                0x0208f718                _FAT_fat_lastCluster
 .text          0x0208f9c8       0xdc C:/devkitPro/libnds/lib\libfat.a(filetime.o)
                0x0208fa14                _FAT_filetime_getDateFromRTC
                0x0208fa58                _FAT_filetime_to_time_t
                0x0208f9c8                _FAT_filetime_getTimeFromRTC
 .text          0x0208faa4      0x30c C:/devkitPro/libnds/lib\libfat.a(io_cf_common.o)
                0x0208faa4                _CF_isInserted
                0x0208fc38                _CF_writeSectors
                0x0208fb2c                _CF_readSectors
                0x0208fd60                _CF_startup
                0x0208fac4                _CF_clearStatus
                0x0208fd54                _CF_shutdown
 .text          0x0208fdb0       0xa0 C:/devkitPro/libnds/lib\libfat.a(io_m3_common.o)
                0x0208fdb4                _M3_changeMode
 .text          0x0208fe50       0x18 C:/devkitPro/libnds/lib\libfat.a(io_sc_common.o)
                0x0208fe50                _SC_changeMode
 .text          0x0208fe68      0xec8 C:/devkitPro/libnds/lib\libfat.a(directory.o)
                0x020903c8                _FAT_directory_chdir
                0x020906b0                _FAT_directory_entryStat
                0x020903f8                _FAT_directory_isValidAlias
                0x020905f0                _FAT_directory_removeEntry
                0x0208fef4                _FAT_directory_getRootEntry
                0x020904e0                _FAT_directory_entryFromPosition
                0x0208ffc0                _FAT_directory_getNextEntry
                0x02090184                _FAT_directory_getFirstEntry
                0x02090494                _FAT_directory_isValidLfn
                0x0208fedc                _FAT_directory_entryGetCluster
                0x0209077c                _FAT_directory_addEntry
                0x0209023c                _FAT_directory_entryFromPath
 .text          0x02090d30        0x0 C:/devkitPro/libnds/lib\libnds9.a(COS.o)
 .text          0x02090d30      0x580 C:/devkitPro/libnds/lib\libnds9.a(console.o)
                0x020910ac                con_write
                0x02090edc                consoleInit
                0x02090d98                consolePrintChar
                0x02090ec8                consoleClear
                0x02091064                consoleDemoInit
                0x02091040                consoleInitDefault
 .text          0x020912b0      0x100 C:/devkitPro/libnds/lib\libnds9.a(keys.o)
                0x020912e0                keysSetRepeat
                0x020912d0                keysDownRepeat
                0x020912b0                keysHeld
                0x02091304                keysUp
                0x020912bc                keysDown
                0x0209131c                scanKeys
 .text          0x020913b0      0x110 C:/devkitPro/libnds/lib\libnds9.a(video.o)
                0x02091470                vramSetBankF
                0x02091400                vramRestoreMainBanks
                0x02091498                vramSetBankH
                0x02091448                vramSetBankD
                0x0209145c                vramSetBankE
                0x02091484                vramSetBankG
                0x020913f4                vramRestorMainBanks
                0x02091420                vramSetBankB
                0x02091434                vramSetBankC
                0x020914ac                vramSetBankI
                0x020913b0                vramSetMainBanks
                0x0209140c                vramSetBankA
 .text          0x020914c0      0x670 C:/devkitPro/libnds/lib\libnds9.a(card.o)
                0x020916a0                cardEepromGetType
                0x02091524                cardStartTransfer
                0x020915c8                cardReadHeader
                0x0209172c                cardReadEeprom
                0x020915e4                cardReadID
                0x02091980                cardEepromGetSize
                0x0209159c                cardRead00
                0x02091604                cardEepromCommand
                0x02091adc                cardEepromChipErase
                0x020914e4                cardPolledTransfer
                0x020917d8                cardWriteEeprom
                0x0209156c                cardWriteAndRead
                0x020914c0                cardWriteCommand
                0x02091a34                cardEepromSectorErase
                0x0209168c                cardEepromReadID
 .text          0x02091b30      0x208 C:/devkitPro/libnds/lib\libnds9.a(interrupts.o)
                0x02091c98                irqEnable
                0x02091b34                irqSet
                0x02091cec                irqDisable
                0x02091b9c                irqInit
                0x02091b30                irqDummy
                0x02091c68                irqInitHandler
                0x02091be8                irqClear
 *fill*         0x02091d38        0x8 ff
 .text          0x02091d40       0x70 C:/devkitPro/libnds/lib\libnds9.a(biosCalls.o)
                0x02091d50                swiSleep
                0x02091d8a                swiDecompressLZSSVram
                0x02091d72                swiFastCopy
                0x02091d76                swiSqrt
                0x02091d40                swiSoftReset
                0x02091d7a                swiCRC16
                0x02091d8e                swiDecompressHuffman
                0x02091da6                swiSetHaltCR
                0x02091d5c                swiRemainder
                0x02091d82                swiUnpackBits
                0x02091d86                swiDecompressLZSSWram
                0x02091da2                swiDecodeDelta16
                0x02091d44                swiDelay
                0x02091d62                swiDivMod
                0x02091d96                swiDecompressRLEVram
                0x02091d92                swiDecompressRLEWram
                0x02091d9e                swiDecodeDelta8
                0x02091d58                swiDivide
                0x02091d54                swiChangeSoundBias
                0x02091d4c                swiWaitForVBlank
                0x02091d48                swiIntrWait
                0x02091d7e                swiIsDebugger
                0x02091d9a                swiWaitForIRQ
                0x02091d6e                swiCopy
 .text          0x02091db0        0x0 C:/devkitPro/libnds/lib\libnds9.a(interruptDispatcher.o)
 .text          0x02091db0        0x0 C:/devkitPro/libnds/lib\libnds9.a(default_font.o)
 .text          0x02091db0      0x114 c:/devkitpro/devkitarm/bin/../lib/gcc/arm-eabi/4.1.1\libgcc.a(_udivsi3.o)
                0x02091db0                __udivsi3
                0x02091db0                __aeabi_uidiv
                0x02091eac                __aeabi_uidivmod
 .text          0x02091ec4      0x144 c:/devkitpro/devkitarm/bin/../lib/gcc/arm-eabi/4.1.1\libgcc.a(_divsi3.o)
                0x02091ec4                __aeabi_idiv
                0x02091ec4                __divsi3
                0x02091ff0                __aeabi_idivmod
 .text          0x02092008        0x4 c:/devkitpro/devkitarm/bin/../lib/gcc/arm-eabi/4.1.1\libgcc.a(_dvmd_tls.o)
                0x02092008                __aeabi_ldiv0
                0x02092008                __div0
                0x02092008                __aeabi_idiv0
 .text          0x0209200c       0x3c c:/devkitpro/devkitarm/bin/../lib/gcc/arm-eabi/4.1.1\libgcc.a(_call_via_rX.o)
                0x02092014                _call_via_r2
                0x02092024                _call_via_r6
                0x02092020                _call_via_r5
                0x02092018                _call_via_r3
                0x02092038                _call_via_fp
                0x0209202c                _call_via_r8
                0x02092028                _call_via_r7
                0x0209200c                _call_via_r0
                0x02092034                _call_via_sl
                0x02092040                _call_via_sp
                0x02092030                _call_via_r9
                0x0209201c                _call_via_r4
                0x02092010                _call_via_r1
                0x0209203c                _call_via_ip
                0x02092044                _call_via_lr
 .text          0x02092048       0x30 c:/devkitpro/devkitarm/bin/../lib/gcc/arm-eabi/4.1.1/../../../../arm-eabi/lib\libg.a(lib_a-calloc.o)
                0x02092048                calloc
 .text          0x02092078       0xa0 c:/devkitpro/devkitarm/bin/../lib/gcc/arm-eabi/4.1.1/../../../../arm-eabi/lib\libg.a(lib_a-callocr.o)
                0x02092078                _calloc_r
 .text          0x02092118        0x0 c:/devkitpro/devkitarm/bin/../lib/gcc/arm-eabi/4.1.1/../../../../arm-eabi/lib\libg.a(lib_a-ctype_.o)
 .text          0x02092118      0x110 c:/devkitpro/devkitarm/bin/../lib/gcc/arm-eabi/4.1.1/../../../../arm-eabi/lib\libg.a(lib_a-fclose.o)
                0x02092118                _fclose_r
                0x02092214                fclose
 .text          0x02092228      0x1b8 c:/devkitpro/devkitarm/bin/../lib/gcc/arm-eabi/4.1.1/../../../../arm-eabi/lib\libg.a(lib_a-fflush.o)
                0x02092228                fflush
 .text          0x020923e0      0x2bc c:/devkitpro/devkitarm/bin/../lib/gcc/arm-eabi/4.1.1/../../../../arm-eabi/lib\libg.a(lib_a-findfp.o)
                0x0209244c                __sinit
                0x02092564                __sfmoreglue
                0x02092554                _cleanup
                0x02092534                _cleanup_r
                0x02092508                __fp_lock_all
                0x0209243c                __sfp_lock_acquire
                0x020925b4                __sfp
                0x02092448                __sinit_lock_release
                0x020924dc                __fp_unlock_all
                0x02092440                __sfp_lock_release
                0x02092444                __sinit_lock_acquire
 .text          0x0209269c       0xfc c:/devkitpro/devkitarm/bin/../lib/gcc/arm-eabi/4.1.1/../../../../arm-eabi/lib\libg.a(lib_a-fopen.o)
                0x0209277c                fopen
                0x0209269c                _fopen_r
 .text          0x02092798      0x228 c:/devkitpro/devkitarm/bin/../lib/gcc/arm-eabi/4.1.1/../../../../arm-eabi/lib\libg.a(lib_a-fread.o)
                0x0209297c                fread
                0x02092798                _fread_r
 .text          0x020929c0      0x3c0 c:/devkitpro/devkitarm/bin/../lib/gcc/arm-eabi/4.1.1/../../../../arm-eabi/lib\libg.a(lib_a-freer.o)
                0x02092ac8                _free_r
                0x020929c0                _malloc_trim_r
 .text          0x02092d80      0x490 c:/devkitpro/devkitarm/bin/../lib/gcc/arm-eabi/4.1.1/../../../../arm-eabi/lib\libg.a(lib_a-fseek.o)
                0x020931e4                fseek
                0x02092d80                _fseek_r
 .text          0x02093210       0x48 c:/devkitpro/devkitarm/bin/../lib/gcc/arm-eabi/4.1.1/../../../../arm-eabi/lib\libg.a(lib_a-fstatr.o)
                0x02093210                _fstat_r
 .text          0x02093258       0xdc c:/devkitpro/devkitarm/bin/../lib/gcc/arm-eabi/4.1.1/../../../../arm-eabi/lib\libg.a(lib_a-ftell.o)
                0x02093320                ftell
                0x02093258                _ftell_r
 .text          0x02093334      0x11c c:/devkitpro/devkitarm/bin/../lib/gcc/arm-eabi/4.1.1/../../../../arm-eabi/lib\libg.a(lib_a-fwalk.o)
                0x020933c0                _fwalk
                0x02093334                _fwalk_reent
 .text          0x02093450       0xc8 c:/devkitpro/devkitarm/bin/../lib/gcc/arm-eabi/4.1.1/../../../../arm-eabi/lib\libg.a(lib_a-fwrite.o)
                0x02093450                _fwrite_r
                0x020934d4                fwrite
 .text          0x02093518        0x0 c:/devkitpro/devkitarm/bin/../lib/gcc/arm-eabi/4.1.1/../../../../arm-eabi/lib\libg.a(lib_a-impure.o)
 .text          0x02093518       0xd4 c:/devkitpro/devkitarm/bin/../lib/gcc/arm-eabi/4.1.1/../../../../arm-eabi/lib\libg.a(lib_a-init.o)
                0x02093564                __libc_init_array
                0x02093518                __libc_fini_array
 .text          0x020935ec       0x74 c:/devkitpro/devkitarm/bin/../lib/gcc/arm-eabi/4.1.1/../../../../arm-eabi/lib\libg.a(lib_a-iprintf.o)
                0x020935ec                _iprintf_r
                0x02093620                iprintf
 .text          0x02093660      0x168 c:/devkitpro/devkitarm/bin/../lib/gcc/arm-eabi/4.1.1/../../../../arm-eabi/lib\libg.a(lib_a-makebuf.o)
                0x02093660                __smakebuf
 .text          0x020937c8       0x50 c:/devkitpro/devkitarm/bin/../lib/gcc/arm-eabi/4.1.1/../../../../arm-eabi/lib\libg.a(lib_a-malloc.o)
                0x020937f0                malloc
                0x020937c8                free
 .text          0x02093818      0x774 c:/devkitpro/devkitarm/bin/../lib/gcc/arm-eabi/4.1.1/../../../../arm-eabi/lib\libg.a(lib_a-mallocr.o)
                0x02093818                _malloc_r
 .text          0x02093f8c       0x98 c:/devkitpro/devkitarm/bin/../lib/gcc/arm-eabi/4.1.1/../../../../arm-eabi/lib\libg.a(lib_a-memcmp.o)
                0x02093f8c                memcmp
 .text          0x02094024       0x9c c:/devkitpro/devkitarm/bin/../lib/gcc/arm-eabi/4.1.1/../../../../arm-eabi/lib\libg.a(lib_a-memcpy.o)
                0x02094024                memcpy
 .text          0x020940c0       0xfc c:/devkitpro/devkitarm/bin/../lib/gcc/arm-eabi/4.1.1/../../../../arm-eabi/lib\libg.a(lib_a-memmove.o)
                0x020940c0                memmove
 .text          0x020941bc       0x98 c:/devkitpro/devkitarm/bin/../lib/gcc/arm-eabi/4.1.1/../../../../arm-eabi/lib\libg.a(lib_a-memset.o)
                0x020941bc                memset
 .text          0x02094254        0x8 c:/devkitpro/devkitarm/bin/../lib/gcc/arm-eabi/4.1.1/../../../../arm-eabi/lib\libg.a(lib_a-mlock.o)
                0x02094258                __malloc_unlock
                0x02094254                __malloc_lock
 .text          0x0209425c       0x4c c:/devkitpro/devkitarm/bin/../lib/gcc/arm-eabi/4.1.1/../../../../arm-eabi/lib\libg.a(lib_a-openr.o)
                0x0209425c                _open_r
 .text          0x020942a8       0x74 c:/devkitpro/devkitarm/bin/../lib/gcc/arm-eabi/4.1.1/../../../../arm-eabi/lib\libg.a(lib_a-printf.o)
                0x020942a8                printf
                0x020942e8                _printf_r
 .text          0x0209431c      0x1a4 c:/devkitpro/devkitarm/bin/../lib/gcc/arm-eabi/4.1.1/../../../../arm-eabi/lib\libg.a(lib_a-reent.o)
                0x02094398                cleanup_glue
                0x020943cc                _reclaim_reent
                0x0209431c                _wrapup_reent
 .text          0x020944c0      0x1e0 c:/devkitpro/devkitarm/bin/../lib/gcc/arm-eabi/4.1.1/../../../../arm-eabi/lib\libg.a(lib_a-refill.o)
                0x020944f8                __srefill_r
 .text          0x020946a0       0x48 c:/devkitpro/devkitarm/bin/../lib/gcc/arm-eabi/4.1.1/../../../../arm-eabi/lib\libg.a(lib_a-sbrkr.o)
                0x020946a0                _sbrk_r
 .text          0x020946e8      0x1ac c:/devkitpro/devkitarm/bin/../lib/gcc/arm-eabi/4.1.1/../../../../arm-eabi/lib\libg.a(lib_a-setvbuf.o)
                0x020946e8                setvbuf
 .text          0x02094894       0xdc c:/devkitpro/devkitarm/bin/../lib/gcc/arm-eabi/4.1.1/../../../../arm-eabi/lib\libg.a(lib_a-siprintf.o)
                0x02094908                _siprintf_r
                0x02094894                siprintf
 .text          0x02094970      0x108 c:/devkitpro/devkitarm/bin/../lib/gcc/arm-eabi/4.1.1/../../../../arm-eabi/lib\libg.a(lib_a-siscanf.o)
                0x02094978                _siscanf_r
                0x020949f8                siscanf
 .text          0x02094a78       0xdc c:/devkitpro/devkitarm/bin/../lib/gcc/arm-eabi/4.1.1/../../../../arm-eabi/lib\libg.a(lib_a-sprintf.o)
                0x02094aec                _sprintf_r
                0x02094a78                sprintf
 .text          0x02094b54      0x128 c:/devkitpro/devkitarm/bin/../lib/gcc/arm-eabi/4.1.1/../../../../arm-eabi/lib\libg.a(lib_a-stdio.o)
                0x02094b7c                __sseek
                0x02094c34                __sread
                0x02094b54                __sclose
                0x02094bc8                __swrite
 .text          0x02094c7c       0x9c c:/devkitpro/devkitarm/bin/../lib/gcc/arm-eabi/4.1.1/../../../../arm-eabi/lib\libg.a(lib_a-strcasecmp.o)
                0x02094c7c                strcasecmp
 .text          0x02094d18       0x98 c:/devkitpro/devkitarm/bin/../lib/gcc/arm-eabi/4.1.1/../../../../arm-eabi/lib\libg.a(lib_a-strcat.o)
                0x02094d18                strcat
 .text          0x02094db0      0x118 c:/devkitpro/devkitarm/bin/../lib/gcc/arm-eabi/4.1.1/../../../../arm-eabi/lib\libg.a(lib_a-strchr.o)
                0x02094db0                strchr
 .text          0x02094ec8       0xa0 c:/devkitpro/devkitarm/bin/../lib/gcc/arm-eabi/4.1.1/../../../../arm-eabi/lib\libg.a(lib_a-strcpy.o)
                0x02094ec8                strcpy
 .text          0x02094f68       0xa8 c:/devkitpro/devkitarm/bin/../lib/gcc/arm-eabi/4.1.1/../../../../arm-eabi/lib\libg.a(lib_a-strlcat.o)
                0x02094f68                strlcat
 .text          0x02095010       0x68 c:/devkitpro/devkitarm/bin/../lib/gcc/arm-eabi/4.1.1/../../../../arm-eabi/lib\libg.a(lib_a-strlcpy.o)
                0x02095010                strlcpy
 .text          0x02095078       0x90 c:/devkitpro/devkitarm/bin/../lib/gcc/arm-eabi/4.1.1/../../../../arm-eabi/lib\libg.a(lib_a-strlen.o)
                0x02095078                strlen
 .text          0x02095108       0xb8 c:/devkitpro/devkitarm/bin/../lib/gcc/arm-eabi/4.1.1/../../../../arm-eabi/lib\libg.a(lib_a-strncasecmp.o)
                0x02095108                strncasecmp
 .text          0x020951c0       0xcc c:/devkitpro/devkitarm/bin/../lib/gcc/arm-eabi/4.1.1/../../../../arm-eabi/lib\libg.a(lib_a-strncat.o)
                0x020951c0                strncat
 .text          0x0209528c      0x13c c:/devkitpro/devkitarm/bin/../lib/gcc/arm-eabi/4.1.1/../../../../arm-eabi/lib\libg.a(lib_a-strncmp.o)
                0x0209528c                strncmp
 .text          0x020953c8      0x114 c:/devkitpro/devkitarm/bin/../lib/gcc/arm-eabi/4.1.1/../../../../arm-eabi/lib\libg.a(lib_a-strncpy.o)
                0x020953c8                strncpy
 .text          0x020954dc       0x48 c:/devkitpro/devkitarm/bin/../lib/gcc/arm-eabi/4.1.1/../../../../arm-eabi/lib\libg.a(lib_a-strnlen.o)
                0x020954dc                strnlen
 .text          0x02095524       0x50 c:/devkitpro/devkitarm/bin/../lib/gcc/arm-eabi/4.1.1/../../../../arm-eabi/lib\libg.a(lib_a-strpbrk.o)
                0x02095524                strpbrk
 .text          0x02095574       0x50 c:/devkitpro/devkitarm/bin/../lib/gcc/arm-eabi/4.1.1/../../../../arm-eabi/lib\libg.a(lib_a-strrchr.o)
                0x02095574                strrchr
 .text          0x020955c4      0x1f0 c:/devkitpro/devkitarm/bin/../lib/gcc/arm-eabi/4.1.1/../../../../arm-eabi/lib\libg.a(lib_a-strtol.o)
                0x02095788                strtol
                0x020955c4                _strtol_r
 .text          0x020957b4       0x44 c:/devkitpro/devkitarm/bin/../lib/gcc/arm-eabi/4.1.1/../../../../arm-eabi/lib\libg.a(lib_a-strupr.o)
                0x020957b4                strupr
 .text          0x020957f8     0x1314 c:/devkitpro/devkitarm/bin/../lib/gcc/arm-eabi/4.1.1/../../../../arm-eabi/lib\libg.a(lib_a-vfiprintf.o)
                0x02096ae0                vfiprintf
                0x02095838                _vfiprintf_r
 .text          0x02096b0c      0xff4 c:/devkitpro/devkitarm/bin/../lib/gcc/arm-eabi/4.1.1/../../../../arm-eabi/lib\libg.a(lib_a-vfiscanf.o)
                0x02097a58                _vfiscanf_r
                0x02097aa4                vfiscanf
                0x02096b0c                __svfiscanf_r
                0x02097a2c                __svfiscanf
 .text          0x02097b00     0x2178 c:/devkitpro/devkitarm/bin/../lib/gcc/arm-eabi/4.1.1/../../../../arm-eabi/lib\libg.a(lib_a-vfprintf.o)
                0x02097b40                _vfprintf_r
                0x02099c4c                vfprintf
 .text          0x02099c78       0x84 c:/devkitpro/devkitarm/bin/../lib/gcc/arm-eabi/4.1.1/../../../../arm-eabi/lib\libg.a(lib_a-wcrtomb.o)
                0x02099c78                _wcrtomb_r
                0x02099cd0                wcrtomb
 .text          0x02099cfc      0x180 c:/devkitpro/devkitarm/bin/../lib/gcc/arm-eabi/4.1.1/../../../../arm-eabi/lib\libg.a(lib_a-wcsrtombs.o)
                0x02099cfc                _wcsrtombs_r
                0x02099e38                wcsrtombs
 .text          0x02099e7c      0x428 c:/devkitpro/devkitarm/bin/../lib/gcc/arm-eabi/4.1.1/../../../../arm-eabi/lib\libg.a(lib_a-wctomb_r.o)
                0x02099e7c                _wctomb_r
 .text          0x0209a2a4       0x4c c:/devkitpro/devkitarm/bin/../lib/gcc/arm-eabi/4.1.1/../../../../arm-eabi/lib\libg.a(lib_a-writer.o)
                0x0209a2a4                _write_r
 .text          0x0209a2f0      0x10c c:/devkitpro/devkitarm/bin/../lib/gcc/arm-eabi/4.1.1/../../../../arm-eabi/lib\libg.a(lib_a-wsetup.o)
                0x0209a2f0                __swsetup
 .text          0x0209a3fc       0x44 c:/devkitpro/devkitarm/bin/../lib/gcc/arm-eabi/4.1.1/../../../../arm-eabi/lib\libg.a(lib_a-closer.o)
                0x0209a3fc                _close_r
 .text          0x0209a440     0x1648 c:/devkitpro/devkitarm/bin/../lib/gcc/arm-eabi/4.1.1/../../../../arm-eabi/lib\libg.a(lib_a-dtoa.o)
                0x0209a64c                _dtoa_r
 .text          0x0209ba88       0xa4 c:/devkitpro/devkitarm/bin/../lib/gcc/arm-eabi/4.1.1/../../../../arm-eabi/lib\libg.a(lib_a-flags.o)
                0x0209ba88                __sflags
 .text          0x0209bb2c      0x444 c:/devkitpro/devkitarm/bin/../lib/gcc/arm-eabi/4.1.1/../../../../arm-eabi/lib\libg.a(lib_a-fvwrite.o)
                0x0209bb2c                __sfvwrite_r
 .text          0x0209bf70       0x24 c:/devkitpro/devkitarm/bin/../lib/gcc/arm-eabi/4.1.1/../../../../arm-eabi/lib\libg.a(lib_a-iswspace.o)
                0x0209bf70                iswspace
 .text          0x0209bf94       0xb0 c:/devkitpro/devkitarm/bin/../lib/gcc/arm-eabi/4.1.1/../../../../arm-eabi/lib\libg.a(lib_a-locale.o)
                0x0209bfc0                _setlocale_r
                0x0209bf94                __locale_charset
                0x0209bfa4                _localeconv_r
                0x0209c028                setlocale
                0x0209bfb0                localeconv
 .text          0x0209c044       0x4c c:/devkitpro/devkitarm/bin/../lib/gcc/arm-eabi/4.1.1/../../../../arm-eabi/lib\libg.a(lib_a-lseekr.o)
                0x0209c044                _lseek_r
 .text          0x0209c090       0xac c:/devkitpro/devkitarm/bin/../lib/gcc/arm-eabi/4.1.1/../../../../arm-eabi/lib\libg.a(lib_a-mbrtowc.o)
                0x0209c0f8                mbrtowc
                0x0209c090                _mbrtowc_r
 .text          0x0209c13c       0x50 c:/devkitpro/devkitarm/bin/../lib/gcc/arm-eabi/4.1.1/../../../../arm-eabi/lib\libg.a(lib_a-mbtowc_r.o)
                0x0209c13c                _mbtowc_r
 .text          0x0209c18c      0x100 c:/devkitpro/devkitarm/bin/../lib/gcc/arm-eabi/4.1.1/../../../../arm-eabi/lib\libg.a(lib_a-memchr.o)
                0x0209c18c                memchr
 .text          0x0209c28c      0xd08 c:/devkitpro/devkitarm/bin/../lib/gcc/arm-eabi/4.1.1/../../../../arm-eabi/lib\libg.a(lib_a-mprec.o)
                0x0209c588                _mprec_log10
                0x0209c640                __any_on
                0x0209c6d4                _Balloc
                0x0209c50c                __ratio
                0x0209ccb8                __i2b
                0x0209c454                __b2d
                0x0209cea0                __s2b
                0x0209c394                __mcmp
                0x0209c2a8                __hi0bits
                0x0209cda8                __pow5mult
                0x0209c9ec                __lshift
                0x0209caf4                __multiply
                0x0209c770                __d2b
                0x0209c5f0                __copybits
                0x0209c3f4                __ulp
                0x0209c8b0                __mdiff
                0x0209c300                __lo0bits
                0x0209ccdc                __multadd
                0x0209c28c                _Bfree
 .text          0x0209cf94       0x4c c:/devkitpro/devkitarm/bin/../lib/gcc/arm-eabi/4.1.1/../../../../arm-eabi/lib\libg.a(lib_a-readr.o)
                0x0209cf94                _read_r
 .text          0x0209cfe0      0x61c c:/devkitpro/devkitarm/bin/../lib/gcc/arm-eabi/4.1.1/../../../../arm-eabi/lib\libg.a(lib_a-reallocr.o)
                0x0209cfe0                _realloc_r
 .text          0x0209d5fc       0x3c c:/devkitpro/devkitarm/bin/../lib/gcc/arm-eabi/4.1.1/../../../../arm-eabi/lib\libg.a(lib_a-s_isinfd.o)
                0x0209d5fc                __isinfd
 .text          0x0209d638       0x30 c:/devkitpro/devkitarm/bin/../lib/gcc/arm-eabi/4.1.1/../../../../arm-eabi/lib\libg.a(lib_a-s_isnand.o)
                0x0209d638                __isnand
 .text          0x0209d668       0xc8 c:/devkitpro/devkitarm/bin/../lib/gcc/arm-eabi/4.1.1/../../../../arm-eabi/lib\libg.a(lib_a-sccl.o)
                0x0209d668                __sccl
 .text          0x0209d730       0xd0 c:/devkitpro/devkitarm/bin/../lib/gcc/arm-eabi/4.1.1/../../../../arm-eabi/lib\libg.a(lib_a-strcmp.o)
                0x0209d730                strcmp
 .text          0x0209d800      0x1e4 c:/devkitpro/devkitarm/bin/../lib/gcc/arm-eabi/4.1.1/../../../../arm-eabi/lib\libg.a(lib_a-strtoul.o)
                0x0209d9b8                strtoul
                0x0209d800                _strtoul_r
 .text          0x0209d9e4      0x254 c:/devkitpro/devkitarm/bin/../lib/gcc/arm-eabi/4.1.1/../../../../arm-eabi/lib\libg.a(lib_a-ungetc.o)
                0x0209dc1c                ungetc
                0x0209d9e4                __submore
                0x0209daa0                _ungetc_r
 .text          0x0209dc38      0x41c c:/devkitpro/devkitarm/bin/../lib/gcc/arm-eabi/4.1.1\libgcc.a(_addsubdf3.o)
                0x0209dff4                __floatdidf
                0x0209df78                __floatsidf
                0x0209df54                __aeabi_ui2d
                0x0209dc38                __aeabi_drsub
                0x0209dfa0                __extendsfdf2
                0x0209dc44                __adddf3
                0x0209df54                __floatunsidf
                0x0209dc44                __aeabi_dadd
                0x0209dfe0                __aeabi_ul2d
                0x0209dc40                __aeabi_dsub
                0x0209dfe0                __floatundidf
                0x0209df78                __aeabi_i2d
                0x0209dff4                __aeabi_l2d
                0x0209dfa0                __aeabi_f2d
                0x0209dc40                __subdf3
 .text          0x0209e054      0x49c c:/devkitpro/devkitarm/bin/../lib/gcc/arm-eabi/4.1.1\libgcc.a(_muldivdf3.o)
                0x0209e2e4                __aeabi_ddiv
                0x0209e054                __aeabi_dmul
                0x0209e2e4                __divdf3
                0x0209e054                __muldf3
 .text          0x0209e4f0      0x140 c:/devkitpro/devkitarm/bin/../lib/gcc/arm-eabi/4.1.1\libgcc.a(_cmpdf2.o)
                0x0209e5e8                __aeabi_dcmple
                0x0209e500                __cmpdf2
                0x0209e500                __eqdf2
                0x0209e4f0                __gtdf2
                0x0209e5a0                __aeabi_cdcmple
                0x0209e584                __aeabi_cdrcmple
                0x0209e4f8                __ltdf2
                0x0209e5d0                __aeabi_dcmplt
                0x0209e4f8                __ledf2
                0x0209e618                __aeabi_dcmpgt
                0x0209e600                __aeabi_dcmpge
                0x0209e500                __nedf2
                0x0209e5b8                __aeabi_dcmpeq
                0x0209e5a0                __aeabi_cdcmpeq
                0x0209e4f0                __gedf2
 .text          0x0209e630       0x5c c:/devkitpro/devkitarm/bin/../lib/gcc/arm-eabi/4.1.1\libgcc.a(_fixdfsi.o)
                0x0209e630                __fixdfsi
                0x0209e630                __aeabi_d2iz
 .text          0x0209e68c      0x18c c:/devkitpro/devkitarm/bin/../lib/gcc/arm-eabi/4.1.1/../../../../arm-eabi/lib\libsysbase.a(iosupport.o)
                0x0209e7dc                RemoveDevice
                0x0209e68c                setDefaultDevice
                0x0209e6a4                AddDevice
                0x0209e738                FindDevice
 .text          0x0209e818       0x6c c:/devkitpro/devkitarm/bin/../lib/gcc/arm-eabi/4.1.1/../../../../arm-eabi/lib\libsysbase.a(close.o)
                0x0209e818                _close
 .text          0x0209e884       0x74 c:/devkitpro/devkitarm/bin/../lib/gcc/arm-eabi/4.1.1/../../../../arm-eabi/lib\libsysbase.a(fstat.o)
                0x0209e884                _fstat
 .text          0x0209e8f8        0x8 c:/devkitpro/devkitarm/bin/../lib/gcc/arm-eabi/4.1.1/../../../../arm-eabi/lib\libsysbase.a(isatty.o)
                0x0209e8f8                isatty
 .text          0x0209e900       0x54 c:/devkitpro/devkitarm/bin/../lib/gcc/arm-eabi/4.1.1/../../../../arm-eabi/lib\libsysbase.a(lseek.o)
                0x0209e900                _lseek
 .text          0x0209e954       0xd0 c:/devkitpro/devkitarm/bin/../lib/gcc/arm-eabi/4.1.1/../../../../arm-eabi/lib\libsysbase.a(open.o)
                0x0209e954                _open
 .text          0x0209ea24       0x70 c:/devkitpro/devkitarm/bin/../lib/gcc/arm-eabi/4.1.1/../../../../arm-eabi/lib\libsysbase.a(read.o)
                0x0209ea24                _read
 .text          0x0209ea94       0x80 c:/devkitpro/devkitarm/bin/../lib/gcc/arm-eabi/4.1.1/../../../../arm-eabi/lib\libsysbase.a(sbrk.o)
                0x0209ea94                _sbrk
 .text          0x0209eb14       0x70 c:/devkitpro/devkitarm/bin/../lib/gcc/arm-eabi/4.1.1/../../../../arm-eabi/lib\libsysbase.a(write.o)
                0x0209eb14                _write
 .text          0x0209eb84        0x0 c:/devkitpro/devkitarm/bin/../lib/gcc/arm-eabi/4.1.1/../../../../arm-eabi/lib\libsysbase.a(malloc_vars.o)
 .text          0x0209eb84      0x360 c:/devkitpro/devkitarm/bin/../lib/gcc/arm-eabi/4.1.1/../../../../arm-eabi/lib\libsysbase.a(chdir.o)
                0x0209ed94                chdir
                0x0209eb84                getcwd
                0x0209ebec                _concatenate_path
 .text          0x0209eee4      0x20c c:/devkitpro/devkitarm/bin/../lib/gcc/arm-eabi/4.1.1/../../../../arm-eabi/lib\libsysbase.a(dir.o)
                0x0209eee4                dirreset
                0x0209ef48                dirnext
                0x0209f02c                diropen
                0x0209efb8                dirclose
 .text          0x0209f0f0        0x0 c:/devkitpro/devkitarm/bin/../lib/gcc/arm-eabi/4.1.1/crtend.o
 .text          0x0209f0f0        0x0 c:/devkitpro/devkitarm/bin/../lib/gcc/arm-eabi/4.1.1/crtn.o
 *(.text.*)
 *(.stub)
 *(.gnu.warning)
 *(.gnu.linkonce.t*)
 *(.glue_7)
 .glue_7        0x0209f0f0        0x0 c:/devkitpro/devkitarm/bin/../lib/gcc/arm-eabi/4.1.1/../../../../arm-eabi/lib/ds_arm9_crt0.o
 .glue_7        0x0209f0f0        0x0 c:/devkitpro/devkitarm/bin/../lib/gcc/arm-eabi/4.1.1/crti.o
 .glue_7        0x0209f0f0        0x0 c:/devkitpro/devkitarm/bin/../lib/gcc/arm-eabi/4.1.1/crtbegin.o
 .glue_7        0x0209f0f0        0x0 file.o
 .glue_7        0x0209f0f0        0x0 m3sd.o
 .glue_7        0x0209f0f0        0x0 main.o
 .glue_7        0x0209f0f0        0x0 mz80.o
 .glue_7        0x0209f0f0        0x0 sn76496.o
 .glue_7        0x0209f0f0        0x0 sound.o
 .glue_7        0x0209f0f0        0x0 ym2612.o
 .glue_7        0x0209f0f0        0x0 Area.o
 .glue_7        0x0209f0f0        0x0 Cart.o
 .glue_7        0x0209f0f0        0x0 Disa.o
 .glue_7        0x0209f0f0        0x0 Draw.o
 .glue_7        0x0209f0f0        0x0 Draw2.o
 .glue_7        0x0209f0f0        0x0 Draw3.o
 .glue_7        0x0209f0f0        0x0 Memory.o
 .glue_7        0x0209f0f0        0x0 Pico.o
 .glue_7        0x0209f0f0        0x0 Sek.o
 .glue_7        0x0209f0f0        0x0 Timer.o
 .glue_7        0x0209f0f0        0x0 Utils.o
 .glue_7        0x0209f0f0        0x0 VideoPort.o
 .glue_7        0x0209f0f0        0x0 Cyclone.o
 .glue_7        0x0209f0f0        0x0 DrZ80.o
 .glue_7        0x0209f0f0        0x0 ym2612_helper.o
 .glue_7        0x0209f0f0        0x0 Draw2_asm.o
 .glue_7        0x0209f0f0        0x0 C:/devkitPro/libnds/lib\libfat.a(libfat.o)
 .glue_7        0x0209f0f0        0x0 C:/devkitPro/libnds/lib\libfat.a(partition.o)
 .glue_7        0x0209f0f0        0x0 C:/devkitPro/libnds/lib\libfat.a(disc.o)
 .glue_7        0x0209f0f0        0x0 C:/devkitPro/libnds/lib\libfat.a(io_m3cf.o)
 .glue_7        0x0209f0f0        0x0 C:/devkitPro/libnds/lib\libfat.a(io_m3sd.o)
 .glue_7        0x0209f0f0        0x0 C:/devkitPro/libnds/lib\libfat.a(io_mpcf.o)
 .glue_7        0x0209f0f0        0x0 C:/devkitPro/libnds/lib\libfat.a(io_njsd.o)
 .glue_7        0x0209f0f0        0x0 C:/devkitPro/libnds/lib\libfat.a(io_nmmc.o)
 .glue_7        0x0209f0f0        0x0 C:/devkitPro/libnds/lib\libfat.a(io_sccf.o)
 .glue_7        0x0209f0f0        0x0 C:/devkitPro/libnds/lib\libfat.a(io_scsd.o)
 .glue_7        0x0209f0f0        0x0 C:/devkitPro/libnds/lib\libfat.a(io_sd_common.o)
 .glue_7        0x0209f0f0        0x0 C:/devkitPro/libnds/lib\libfat.a(io_dldi.o)
 .glue_7        0x0209f0f0        0x0 C:/devkitPro/libnds/lib\libfat.a(io_scsd_s.o)
 .glue_7        0x0209f0f0        0x0 C:/devkitPro/libnds/lib\libfat.a(cache.o)
 .glue_7        0x0209f0f0        0x0 C:/devkitPro/libnds/lib\libfat.a(fatdir.o)
 .glue_7        0x0209f0f0        0x0 C:/devkitPro/libnds/lib\libfat.a(fatfile.o)
 .glue_7        0x0209f0f0        0x0 C:/devkitPro/libnds/lib\libfat.a(file_allocation_table.o)
 .glue_7        0x0209f0f0        0x0 C:/devkitPro/libnds/lib\libfat.a(filetime.o)
 .glue_7        0x0209f0f0        0x0 C:/devkitPro/libnds/lib\libfat.a(io_cf_common.o)
 .glue_7        0x0209f0f0        0x0 C:/devkitPro/libnds/lib\libfat.a(io_m3_common.o)
 .glue_7        0x0209f0f0        0x0 C:/devkitPro/libnds/lib\libfat.a(io_sc_common.o)
 .glue_7        0x0209f0f0        0x0 C:/devkitPro/libnds/lib\libfat.a(directory.o)
 .glue_7        0x0209f0f0        0x0 C:/devkitPro/libnds/lib\libnds9.a(COS.o)
 .glue_7        0x0209f0f0        0x0 C:/devkitPro/libnds/lib\libnds9.a(console.o)
 .glue_7        0x0209f0f0        0x0 C:/devkitPro/libnds/lib\libnds9.a(keys.o)
 .glue_7        0x0209f0f0        0x0 C:/devkitPro/libnds/lib\libnds9.a(video.o)
 .glue_7        0x0209f0f0        0x0 C:/devkitPro/libnds/lib\libnds9.a(card.o)
 .glue_7        0x0209f0f0        0x0 C:/devkitPro/libnds/lib\libnds9.a(interrupts.o)
 .glue_7        0x0209f0f0        0x0 C:/devkitPro/libnds/lib\libnds9.a(biosCalls.o)
 .glue_7        0x0209f0f0        0x0 C:/devkitPro/libnds/lib\libnds9.a(interruptDispatcher.o)
 .glue_7        0x0209f0f0        0x0 C:/devkitPro/libnds/lib\libnds9.a(default_font.o)
 .glue_7        0x0209f0f0        0x0 c:/devkitpro/devkitarm/bin/../lib/gcc/arm-eabi/4.1.1\libgcc.a(_udivsi3.o)
 .glue_7        0x0209f0f0        0x0 c:/devkitpro/devkitarm/bin/../lib/gcc/arm-eabi/4.1.1\libgcc.a(_divsi3.o)
 .glue_7        0x0209f0f0        0x0 c:/devkitpro/devkitarm/bin/../lib/gcc/arm-eabi/4.1.1\libgcc.a(_dvmd_tls.o)
 .glue_7        0x0209f0f0        0x0 c:/devkitpro/devkitarm/bin/../lib/gcc/arm-eabi/4.1.1\libgcc.a(_call_via_rX.o)
 .glue_7        0x0209f0f0        0x0 c:/devkitpro/devkitarm/bin/../lib/gcc/arm-eabi/4.1.1/../../../../arm-eabi/lib\libg.a(lib_a-calloc.o)
 .glue_7        0x0209f0f0        0x0 c:/devkitpro/devkitarm/bin/../lib/gcc/arm-eabi/4.1.1/../../../../arm-eabi/lib\libg.a(lib_a-callocr.o)
 .glue_7        0x0209f0f0        0x0 c:/devkitpro/devkitarm/bin/../lib/gcc/arm-eabi/4.1.1/../../../../arm-eabi/lib\libg.a(lib_a-ctype_.o)
 .glue_7        0x0209f0f0        0x0 c:/devkitpro/devkitarm/bin/../lib/gcc/arm-eabi/4.1.1/../../../../arm-eabi/lib\libg.a(lib_a-fclose.o)
 .glue_7        0x0209f0f0        0x0 c:/devkitpro/devkitarm/bin/../lib/gcc/arm-eabi/4.1.1/../../../../arm-eabi/lib\libg.a(lib_a-fflush.o)
 .glue_7        0x0209f0f0        0x0 c:/devkitpro/devkitarm/bin/../lib/gcc/arm-eabi/4.1.1/../../../../arm-eabi/lib\libg.a(lib_a-findfp.o)
 .glue_7        0x0209f0f0        0x0 c:/devkitpro/devkitarm/bin/../lib/gcc/arm-eabi/4.1.1/../../../../arm-eabi/lib\libg.a(lib_a-fopen.o)
 .glue_7        0x0209f0f0        0x0 c:/devkitpro/devkitarm/bin/../lib/gcc/arm-eabi/4.1.1/../../../../arm-eabi/lib\libg.a(lib_a-fread.o)
 .glue_7        0x0209f0f0        0x0 c:/devkitpro/devkitarm/bin/../lib/gcc/arm-eabi/4.1.1/../../../../arm-eabi/lib\libg.a(lib_a-freer.o)
 .glue_7        0x0209f0f0        0x0 c:/devkitpro/devkitarm/bin/../lib/gcc/arm-eabi/4.1.1/../../../../arm-eabi/lib\libg.a(lib_a-fseek.o)
 .glue_7        0x0209f0f0        0x0 c:/devkitpro/devkitarm/bin/../lib/gcc/arm-eabi/4.1.1/../../../../arm-eabi/lib\libg.a(lib_a-fstatr.o)
 .glue_7        0x0209f0f0        0x0 c:/devkitpro/devkitarm/bin/../lib/gcc/arm-eabi/4.1.1/../../../../arm-eabi/lib\libg.a(lib_a-ftell.o)
 .glue_7        0x0209f0f0        0x0 c:/devkitpro/devkitarm/bin/../lib/gcc/arm-eabi/4.1.1/../../../../arm-eabi/lib\libg.a(lib_a-fwalk.o)
 .glue_7        0x0209f0f0        0x0 c:/devkitpro/devkitarm/bin/../lib/gcc/arm-eabi/4.1.1/../../../../arm-eabi/lib\libg.a(lib_a-fwrite.o)
 .glue_7        0x0209f0f0        0x0 c:/devkitpro/devkitarm/bin/../lib/gcc/arm-eabi/4.1.1/../../../../arm-eabi/lib\libg.a(lib_a-impure.o)
 .glue_7        0x0209f0f0        0x0 c:/devkitpro/devkitarm/bin/../lib/gcc/arm-eabi/4.1.1/../../../../arm-eabi/lib\libg.a(lib_a-init.o)
 .glue_7        0x0209f0f0        0x0 c:/devkitpro/devkitarm/bin/../lib/gcc/arm-eabi/4.1.1/../../../../arm-eabi/lib\libg.a(lib_a-iprintf.o)
 .glue_7        0x0209f0f0        0x0 c:/devkitpro/devkitarm/bin/../lib/gcc/arm-eabi/4.1.1/../../../../arm-eabi/lib\libg.a(lib_a-makebuf.o)
 .glue_7        0x0209f0f0        0x0 c:/devkitpro/devkitarm/bin/../lib/gcc/arm-eabi/4.1.1/../../../../arm-eabi/lib\libg.a(lib_a-malloc.o)
 .glue_7        0x0209f0f0        0x0 c:/devkitpro/devkitarm/bin/../lib/gcc/arm-eabi/4.1.1/../../../../arm-eabi/lib\libg.a(lib_a-mallocr.o)
 .glue_7        0x0209f0f0        0x0 c:/devkitpro/devkitarm/bin/../lib/gcc/arm-eabi/4.1.1/../../../../arm-eabi/lib\libg.a(lib_a-memcmp.o)
 .glue_7        0x0209f0f0        0x0 c:/devkitpro/devkitarm/bin/../lib/gcc/arm-eabi/4.1.1/../../../../arm-eabi/lib\libg.a(lib_a-memcpy.o)
 .glue_7        0x0209f0f0        0x0 c:/devkitpro/devkitarm/bin/../lib/gcc/arm-eabi/4.1.1/../../../../arm-eabi/lib\libg.a(lib_a-memmove.o)
 .glue_7        0x0209f0f0        0x0 c:/devkitpro/devkitarm/bin/../lib/gcc/arm-eabi/4.1.1/../../../../arm-eabi/lib\libg.a(lib_a-memset.o)
 .glue_7        0x0209f0f0        0x0 c:/devkitpro/devkitarm/bin/../lib/gcc/arm-eabi/4.1.1/../../../../arm-eabi/lib\libg.a(lib_a-mlock.o)
 .glue_7        0x0209f0f0        0x0 c:/devkitpro/devkitarm/bin/../lib/gcc/arm-eabi/4.1.1/../../../../arm-eabi/lib\libg.a(lib_a-openr.o)
 .glue_7        0x0209f0f0        0x0 c:/devkitpro/devkitarm/bin/../lib/gcc/arm-eabi/4.1.1/../../../../arm-eabi/lib\libg.a(lib_a-printf.o)
 .glue_7        0x0209f0f0        0x0 c:/devkitpro/devkitarm/bin/../lib/gcc/arm-eabi/4.1.1/../../../../arm-eabi/lib\libg.a(lib_a-reent.o)
 .glue_7        0x0209f0f0        0x0 c:/devkitpro/devkitarm/bin/../lib/gcc/arm-eabi/4.1.1/../../../../arm-eabi/lib\libg.a(lib_a-refill.o)
 .glue_7        0x0209f0f0        0x0 c:/devkitpro/devkitarm/bin/../lib/gcc/arm-eabi/4.1.1/../../../../arm-eabi/lib\libg.a(lib_a-sbrkr.o)
 .glue_7        0x0209f0f0        0x0 c:/devkitpro/devkitarm/bin/../lib/gcc/arm-eabi/4.1.1/../../../../arm-eabi/lib\libg.a(lib_a-setvbuf.o)
 .glue_7        0x0209f0f0        0x0 c:/devkitpro/devkitarm/bin/../lib/gcc/arm-eabi/4.1.1/../../../../arm-eabi/lib\libg.a(lib_a-siprintf.o)
 .glue_7        0x0209f0f0        0x0 c:/devkitpro/devkitarm/bin/../lib/gcc/arm-eabi/4.1.1/../../../../arm-eabi/lib\libg.a(lib_a-siscanf.o)
 .glue_7        0x0209f0f0        0x0 c:/devkitpro/devkitarm/bin/../lib/gcc/arm-eabi/4.1.1/../../../../arm-eabi/lib\libg.a(lib_a-sprintf.o)
 .glue_7        0x0209f0f0        0x0 c:/devkitpro/devkitarm/bin/../lib/gcc/arm-eabi/4.1.1/../../../../arm-eabi/lib\libg.a(lib_a-stdio.o)
 .glue_7        0x0209f0f0        0x0 c:/devkitpro/devkitarm/bin/../lib/gcc/arm-eabi/4.1.1/../../../../arm-eabi/lib\libg.a(lib_a-strcasecmp.o)
 .glue_7        0x0209f0f0        0x0 c:/devkitpro/devkitarm/bin/../lib/gcc/arm-eabi/4.1.1/../../../../arm-eabi/lib\libg.a(lib_a-strcat.o)
 .glue_7        0x0209f0f0        0x0 c:/devkitpro/devkitarm/bin/../lib/gcc/arm-eabi/4.1.1/../../../../arm-eabi/lib\libg.a(lib_a-strchr.o)
 .glue_7        0x0209f0f0        0x0 c:/devkitpro/devkitarm/bin/../lib/gcc/arm-eabi/4.1.1/../../../../arm-eabi/lib\libg.a(lib_a-strcpy.o)
 .glue_7        0x0209f0f0        0x0 c:/devkitpro/devkitarm/bin/../lib/gcc/arm-eabi/4.1.1/../../../../arm-eabi/lib\libg.a(lib_a-strlcat.o)
 .glue_7        0x0209f0f0        0x0 c:/devkitpro/devkitarm/bin/../lib/gcc/arm-eabi/4.1.1/../../../../arm-eabi/lib\libg.a(lib_a-strlcpy.o)
 .glue_7        0x0209f0f0        0x0 c:/devkitpro/devkitarm/bin/../lib/gcc/arm-eabi/4.1.1/../../../../arm-eabi/lib\libg.a(lib_a-strlen.o)
 .glue_7        0x0209f0f0        0x0 c:/devkitpro/devkitarm/bin/../lib/gcc/arm-eabi/4.1.1/../../../../arm-eabi/lib\libg.a(lib_a-strncasecmp.o)
 .glue_7        0x0209f0f0        0x0 c:/devkitpro/devkitarm/bin/../lib/gcc/arm-eabi/4.1.1/../../../../arm-eabi/lib\libg.a(lib_a-strncat.o)
 .glue_7        0x0209f0f0        0x0 c:/devkitpro/devkitarm/bin/../lib/gcc/arm-eabi/4.1.1/../../../../arm-eabi/lib\libg.a(lib_a-strncmp.o)
 .glue_7        0x0209f0f0        0x0 c:/devkitpro/devkitarm/bin/../lib/gcc/arm-eabi/4.1.1/../../../../arm-eabi/lib\libg.a(lib_a-strncpy.o)
 .glue_7        0x0209f0f0        0x0 c:/devkitpro/devkitarm/bin/../lib/gcc/arm-eabi/4.1.1/../../../../arm-eabi/lib\libg.a(lib_a-strnlen.o)
 .glue_7        0x0209f0f0        0x0 c:/devkitpro/devkitarm/bin/../lib/gcc/arm-eabi/4.1.1/../../../../arm-eabi/lib\libg.a(lib_a-strpbrk.o)
 .glue_7        0x0209f0f0        0x0 c:/devkitpro/devkitarm/bin/../lib/gcc/arm-eabi/4.1.1/../../../../arm-eabi/lib\libg.a(lib_a-strrchr.o)
 .glue_7        0x0209f0f0        0x0 c:/devkitpro/devkitarm/bin/../lib/gcc/arm-eabi/4.1.1/../../../../arm-eabi/lib\libg.a(lib_a-strtol.o)
 .glue_7        0x0209f0f0        0x0 c:/devkitpro/devkitarm/bin/../lib/gcc/arm-eabi/4.1.1/../../../../arm-eabi/lib\libg.a(lib_a-strupr.o)
 .glue_7        0x0209f0f0        0x0 c:/devkitpro/devkitarm/bin/../lib/gcc/arm-eabi/4.1.1/../../../../arm-eabi/lib\libg.a(lib_a-vfiprintf.o)
 .glue_7        0x0209f0f0        0x0 c:/devkitpro/devkitarm/bin/../lib/gcc/arm-eabi/4.1.1/../../../../arm-eabi/lib\libg.a(lib_a-vfiscanf.o)
 .glue_7        0x0209f0f0        0x0 c:/devkitpro/devkitarm/bin/../lib/gcc/arm-eabi/4.1.1/../../../../arm-eabi/lib\libg.a(lib_a-vfprintf.o)
 .glue_7        0x0209f0f0        0x0 c:/devkitpro/devkitarm/bin/../lib/gcc/arm-eabi/4.1.1/../../../../arm-eabi/lib\libg.a(lib_a-wcrtomb.o)
 .glue_7        0x0209f0f0        0x0 c:/devkitpro/devkitarm/bin/../lib/gcc/arm-eabi/4.1.1/../../../../arm-eabi/lib\libg.a(lib_a-wcsrtombs.o)
 .glue_7        0x0209f0f0        0x0 c:/devkitpro/devkitarm/bin/../lib/gcc/arm-eabi/4.1.1/../../../../arm-eabi/lib\libg.a(lib_a-wctomb_r.o)
 .glue_7        0x0209f0f0        0x0 c:/devkitpro/devkitarm/bin/../lib/gcc/arm-eabi/4.1.1/../../../../arm-eabi/lib\libg.a(lib_a-writer.o)
 .glue_7        0x0209f0f0        0x0 c:/devkitpro/devkitarm/bin/../lib/gcc/arm-eabi/4.1.1/../../../../arm-eabi/lib\libg.a(lib_a-wsetup.o)
 .glue_7        0x0209f0f0        0x0 c:/devkitpro/devkitarm/bin/../lib/gcc/arm-eabi/4.1.1/../../../../arm-eabi/lib\libg.a(lib_a-closer.o)
 .glue_7        0x0209f0f0        0x0 c:/devkitpro/devkitarm/bin/../lib/gcc/arm-eabi/4.1.1/../../../../arm-eabi/lib\libg.a(lib_a-dtoa.o)
 .glue_7        0x0209f0f0        0x0 c:/devkitpro/devkitarm/bin/../lib/gcc/arm-eabi/4.1.1/../../../../arm-eabi/lib\libg.a(lib_a-flags.o)
 .glue_7        0x0209f0f0        0x0 c:/devkitpro/devkitarm/bin/../lib/gcc/arm-eabi/4.1.1/../../../../arm-eabi/lib\libg.a(lib_a-fvwrite.o)
 .glue_7        0x0209f0f0        0x0 c:/devkitpro/devkitarm/bin/../lib/gcc/arm-eabi/4.1.1/../../../../arm-eabi/lib\libg.a(lib_a-iswspace.o)
 .glue_7        0x0209f0f0        0x0 c:/devkitpro/devkitarm/bin/../lib/gcc/arm-eabi/4.1.1/../../../../arm-eabi/lib\libg.a(lib_a-locale.o)
 .glue_7        0x0209f0f0        0x0 c:/devkitpro/devkitarm/bin/../lib/gcc/arm-eabi/4.1.1/../../../../arm-eabi/lib\libg.a(lib_a-lseekr.o)
 .glue_7        0x0209f0f0        0x0 c:/devkitpro/devkitarm/bin/../lib/gcc/arm-eabi/4.1.1/../../../../arm-eabi/lib\libg.a(lib_a-mbrtowc.o)
 .glue_7        0x0209f0f0        0x0 c:/devkitpro/devkitarm/bin/../lib/gcc/arm-eabi/4.1.1/../../../../arm-eabi/lib\libg.a(lib_a-mbtowc_r.o)
 .glue_7        0x0209f0f0        0x0 c:/devkitpro/devkitarm/bin/../lib/gcc/arm-eabi/4.1.1/../../../../arm-eabi/lib\libg.a(lib_a-memchr.o)
 .glue_7        0x0209f0f0        0x0 c:/devkitpro/devkitarm/bin/../lib/gcc/arm-eabi/4.1.1/../../../../arm-eabi/lib\libg.a(lib_a-mprec.o)
 .glue_7        0x0209f0f0        0x0 c:/devkitpro/devkitarm/bin/../lib/gcc/arm-eabi/4.1.1/../../../../arm-eabi/lib\libg.a(lib_a-readr.o)
 .glue_7        0x0209f0f0        0x0 c:/devkitpro/devkitarm/bin/../lib/gcc/arm-eabi/4.1.1/../../../../arm-eabi/lib\libg.a(lib_a-reallocr.o)
 .glue_7        0x0209f0f0        0x0 c:/devkitpro/devkitarm/bin/../lib/gcc/arm-eabi/4.1.1/../../../../arm-eabi/lib\libg.a(lib_a-s_isinfd.o)
 .glue_7        0x0209f0f0        0x0 c:/devkitpro/devkitarm/bin/../lib/gcc/arm-eabi/4.1.1/../../../../arm-eabi/lib\libg.a(lib_a-s_isnand.o)
 .glue_7        0x0209f0f0        0x0 c:/devkitpro/devkitarm/bin/../lib/gcc/arm-eabi/4.1.1/../../../../arm-eabi/lib\libg.a(lib_a-sccl.o)
 .glue_7        0x0209f0f0        0x0 c:/devkitpro/devkitarm/bin/../lib/gcc/arm-eabi/4.1.1/../../../../arm-eabi/lib\libg.a(lib_a-strcmp.o)
 .glue_7        0x0209f0f0        0x0 c:/devkitpro/devkitarm/bin/../lib/gcc/arm-eabi/4.1.1/../../../../arm-eabi/lib\libg.a(lib_a-strtoul.o)
 .glue_7        0x0209f0f0        0x0 c:/devkitpro/devkitarm/bin/../lib/gcc/arm-eabi/4.1.1/../../../../arm-eabi/lib\libg.a(lib_a-ungetc.o)
 .glue_7        0x0209f0f0        0x0 c:/devkitpro/devkitarm/bin/../lib/gcc/arm-eabi/4.1.1\libgcc.a(_addsubdf3.o)
 .glue_7        0x0209f0f0        0x0 c:/devkitpro/devkitarm/bin/../lib/gcc/arm-eabi/4.1.1\libgcc.a(_muldivdf3.o)
 .glue_7        0x0209f0f0        0x0 c:/devkitpro/devkitarm/bin/../lib/gcc/arm-eabi/4.1.1\libgcc.a(_cmpdf2.o)
 .glue_7        0x0209f0f0        0x0 c:/devkitpro/devkitarm/bin/../lib/gcc/arm-eabi/4.1.1\libgcc.a(_fixdfsi.o)
 .glue_7        0x0209f0f0        0x0 c:/devkitpro/devkitarm/bin/../lib/gcc/arm-eabi/4.1.1/../../../../arm-eabi/lib\libsysbase.a(iosupport.o)
 .glue_7        0x0209f0f0        0x0 c:/devkitpro/devkitarm/bin/../lib/gcc/arm-eabi/4.1.1/../../../../arm-eabi/lib\libsysbase.a(close.o)
 .glue_7        0x0209f0f0        0x0 c:/devkitpro/devkitarm/bin/../lib/gcc/arm-eabi/4.1.1/../../../../arm-eabi/lib\libsysbase.a(fstat.o)
 .glue_7        0x0209f0f0        0x0 c:/devkitpro/devkitarm/bin/../lib/gcc/arm-eabi/4.1.1/../../../../arm-eabi/lib\libsysbase.a(isatty.o)
 .glue_7        0x0209f0f0        0x0 c:/devkitpro/devkitarm/bin/../lib/gcc/arm-eabi/4.1.1/../../../../arm-eabi/lib\libsysbase.a(lseek.o)
 .glue_7        0x0209f0f0        0x0 c:/devkitpro/devkitarm/bin/../lib/gcc/arm-eabi/4.1.1/../../../../arm-eabi/lib\libsysbase.a(open.o)
 .glue_7        0x0209f0f0        0x0 c:/devkitpro/devkitarm/bin/../lib/gcc/arm-eabi/4.1.1/../../../../arm-eabi/lib\libsysbase.a(read.o)
 .glue_7        0x0209f0f0        0x0 c:/devkitpro/devkitarm/bin/../lib/gcc/arm-eabi/4.1.1/../../../../arm-eabi/lib\libsysbase.a(sbrk.o)
 .glue_7        0x0209f0f0        0x0 c:/devkitpro/devkitarm/bin/../lib/gcc/arm-eabi/4.1.1/../../../../arm-eabi/lib\libsysbase.a(write.o)
 .glue_7        0x0209f0f0        0x0 c:/devkitpro/devkitarm/bin/../lib/gcc/arm-eabi/4.1.1/../../../../arm-eabi/lib\libsysbase.a(malloc_vars.o)
 .glue_7        0x0209f0f0        0x0 c:/devkitpro/devkitarm/bin/../lib/gcc/arm-eabi/4.1.1/../../../../arm-eabi/lib\libsysbase.a(chdir.o)
 .glue_7        0x0209f0f0        0x0 c:/devkitpro/devkitarm/bin/../lib/gcc/arm-eabi/4.1.1/../../../../arm-eabi/lib\libsysbase.a(dir.o)
 .glue_7        0x0209f0f0       0xb4 c:/devkitpro/devkitarm/bin/../lib/gcc/arm-eabi/4.1.1/crtend.o
                0x0209f174                __vramSetMainBanks_from_arm
                0x0209f168                __keysHeld_from_arm
                0x0209f15c                __irqSet_from_arm
                0x0209f120                __keysDownRepeat_from_arm
                0x0209f108                __scanKeys_from_arm
                0x0209f114                __keysDown_from_arm
                0x0209f180                __consoleInitDefault_from_arm
                0x0209f198                __swiDelay_from_arm
                0x0209f150                __irqEnable_from_arm
                0x0209f0f0                ___call_via_r3_from_arm
                0x0209f138                __consoleClear_from_arm
                0x0209f144                __irqInit_from_arm
                0x0209f12c                __keysUp_from_arm
                0x0209f0fc                __swiWaitForVBlank_from_arm
                0x0209f18c                __fatInitDefault_from_arm
 .glue_7        0x0209f1a4        0x0 c:/devkitpro/devkitarm/bin/../lib/gcc/arm-eabi/4.1.1/crtn.o
 *(.glue_7t)
 .glue_7t       0x0209f1a4        0x0 c:/devkitpro/devkitarm/bin/../lib/gcc/arm-eabi/4.1.1/../../../../arm-eabi/lib/ds_arm9_crt0.o
 .glue_7t       0x0209f1a4        0x0 c:/devkitpro/devkitarm/bin/../lib/gcc/arm-eabi/4.1.1/crti.o
 .glue_7t       0x0209f1a4        0x0 c:/devkitpro/devkitarm/bin/../lib/gcc/arm-eabi/4.1.1/crtbegin.o
 .glue_7t       0x0209f1a4        0x0 file.o
 .glue_7t       0x0209f1a4        0x0 m3sd.o
 .glue_7t       0x0209f1a4        0x0 main.o
 .glue_7t       0x0209f1a4        0x0 mz80.o
 .glue_7t       0x0209f1a4        0x0 sn76496.o
 .glue_7t       0x0209f1a4        0x0 sound.o
 .glue_7t       0x0209f1a4        0x0 ym2612.o
 .glue_7t       0x0209f1a4        0x0 Area.o
 .glue_7t       0x0209f1a4        0x0 Cart.o
 .glue_7t       0x0209f1a4        0x0 Disa.o
 .glue_7t       0x0209f1a4        0x0 Draw.o
 .glue_7t       0x0209f1a4        0x0 Draw2.o
 .glue_7t       0x0209f1a4        0x0 Draw3.o
 .glue_7t       0x0209f1a4        0x0 Memory.o
 .glue_7t       0x0209f1a4        0x0 Pico.o
 .glue_7t       0x0209f1a4        0x0 Sek.o
 .glue_7t       0x0209f1a4        0x0 Timer.o
 .glue_7t       0x0209f1a4        0x0 Utils.o
 .glue_7t       0x0209f1a4        0x0 VideoPort.o
 .glue_7t       0x0209f1a4        0x0 Cyclone.o
 .glue_7t       0x0209f1a4        0x0 DrZ80.o
 .glue_7t       0x0209f1a4        0x0 ym2612_helper.o
 .glue_7t       0x0209f1a4        0x0 Draw2_asm.o
 .glue_7t       0x0209f1a4        0x0 C:/devkitPro/libnds/lib\libfat.a(libfat.o)
 .glue_7t       0x0209f1a4        0x0 C:/devkitPro/libnds/lib\libfat.a(partition.o)
 .glue_7t       0x0209f1a4        0x0 C:/devkitPro/libnds/lib\libfat.a(disc.o)
 .glue_7t       0x0209f1a4        0x0 C:/devkitPro/libnds/lib\libfat.a(io_m3cf.o)
 .glue_7t       0x0209f1a4        0x0 C:/devkitPro/libnds/lib\libfat.a(io_m3sd.o)
 .glue_7t       0x0209f1a4        0x0 C:/devkitPro/libnds/lib\libfat.a(io_mpcf.o)
 .glue_7t       0x0209f1a4        0x0 C:/devkitPro/libnds/lib\libfat.a(io_njsd.o)
 .glue_7t       0x0209f1a4        0x0 C:/devkitPro/libnds/lib\libfat.a(io_nmmc.o)
 .glue_7t       0x0209f1a4        0x0 C:/devkitPro/libnds/lib\libfat.a(io_sccf.o)
 .glue_7t       0x0209f1a4        0x0 C:/devkitPro/libnds/lib\libfat.a(io_scsd.o)
 .glue_7t       0x0209f1a4        0x0 C:/devkitPro/libnds/lib\libfat.a(io_sd_common.o)
 .glue_7t       0x0209f1a4        0x0 C:/devkitPro/libnds/lib\libfat.a(io_dldi.o)
 .glue_7t       0x0209f1a4        0x0 C:/devkitPro/libnds/lib\libfat.a(io_scsd_s.o)
 .glue_7t       0x0209f1a4        0x0 C:/devkitPro/libnds/lib\libfat.a(cache.o)
 .glue_7t       0x0209f1a4        0x0 C:/devkitPro/libnds/lib\libfat.a(fatdir.o)
 .glue_7t       0x0209f1a4        0x0 C:/devkitPro/libnds/lib\libfat.a(fatfile.o)
 .glue_7t       0x0209f1a4        0x0 C:/devkitPro/libnds/lib\libfat.a(file_allocation_table.o)
 .glue_7t       0x0209f1a4        0x0 C:/devkitPro/libnds/lib\libfat.a(filetime.o)
 .glue_7t       0x0209f1a4        0x0 C:/devkitPro/libnds/lib\libfat.a(io_cf_common.o)
 .glue_7t       0x0209f1a4        0x0 C:/devkitPro/libnds/lib\libfat.a(io_m3_common.o)
 .glue_7t       0x0209f1a4        0x0 C:/devkitPro/libnds/lib\libfat.a(io_sc_common.o)
 .glue_7t       0x0209f1a4        0x0 C:/devkitPro/libnds/lib\libfat.a(directory.o)
 .glue_7t       0x0209f1a4        0x0 C:/devkitPro/libnds/lib\libnds9.a(COS.o)
 .glue_7t       0x0209f1a4        0x0 C:/devkitPro/libnds/lib\libnds9.a(console.o)
 .glue_7t       0x0209f1a4        0x0 C:/devkitPro/libnds/lib\libnds9.a(keys.o)
 .glue_7t       0x0209f1a4        0x0 C:/devkitPro/libnds/lib\libnds9.a(video.o)
 .glue_7t       0x0209f1a4        0x0 C:/devkitPro/libnds/lib\libnds9.a(card.o)
 .glue_7t       0x0209f1a4        0x0 C:/devkitPro/libnds/lib\libnds9.a(interrupts.o)
 .glue_7t       0x0209f1a4        0x0 C:/devkitPro/libnds/lib\libnds9.a(biosCalls.o)
 .glue_7t       0x0209f1a4        0x0 C:/devkitPro/libnds/lib\libnds9.a(interruptDispatcher.o)
 .glue_7t       0x0209f1a4        0x0 C:/devkitPro/libnds/lib\libnds9.a(default_font.o)
 .glue_7t       0x0209f1a4        0x0 c:/devkitpro/devkitarm/bin/../lib/gcc/arm-eabi/4.1.1\libgcc.a(_udivsi3.o)
 .glue_7t       0x0209f1a4        0x0 c:/devkitpro/devkitarm/bin/../lib/gcc/arm-eabi/4.1.1\libgcc.a(_divsi3.o)
 .glue_7t       0x0209f1a4        0x0 c:/devkitpro/devkitarm/bin/../lib/gcc/arm-eabi/4.1.1\libgcc.a(_dvmd_tls.o)
 .glue_7t       0x0209f1a4        0x0 c:/devkitpro/devkitarm/bin/../lib/gcc/arm-eabi/4.1.1\libgcc.a(_call_via_rX.o)
 .glue_7t       0x0209f1a4        0x0 c:/devkitpro/devkitarm/bin/../lib/gcc/arm-eabi/4.1.1/../../../../arm-eabi/lib\libg.a(lib_a-calloc.o)
 .glue_7t       0x0209f1a4        0x0 c:/devkitpro/devkitarm/bin/../lib/gcc/arm-eabi/4.1.1/../../../../arm-eabi/lib\libg.a(lib_a-callocr.o)
 .glue_7t       0x0209f1a4        0x0 c:/devkitpro/devkitarm/bin/../lib/gcc/arm-eabi/4.1.1/../../../../arm-eabi/lib\libg.a(lib_a-ctype_.o)
 .glue_7t       0x0209f1a4        0x0 c:/devkitpro/devkitarm/bin/../lib/gcc/arm-eabi/4.1.1/../../../../arm-eabi/lib\libg.a(lib_a-fclose.o)
 .glue_7t       0x0209f1a4        0x0 c:/devkitpro/devkitarm/bin/../lib/gcc/arm-eabi/4.1.1/../../../../arm-eabi/lib\libg.a(lib_a-fflush.o)
 .glue_7t       0x0209f1a4        0x0 c:/devkitpro/devkitarm/bin/../lib/gcc/arm-eabi/4.1.1/../../../../arm-eabi/lib\libg.a(lib_a-findfp.o)
 .glue_7t       0x0209f1a4        0x0 c:/devkitpro/devkitarm/bin/../lib/gcc/arm-eabi/4.1.1/../../../../arm-eabi/lib\libg.a(lib_a-fopen.o)
 .glue_7t       0x0209f1a4        0x0 c:/devkitpro/devkitarm/bin/../lib/gcc/arm-eabi/4.1.1/../../../../arm-eabi/lib\libg.a(lib_a-fread.o)
 .glue_7t       0x0209f1a4        0x0 c:/devkitpro/devkitarm/bin/../lib/gcc/arm-eabi/4.1.1/../../../../arm-eabi/lib\libg.a(lib_a-freer.o)
 .glue_7t       0x0209f1a4        0x0 c:/devkitpro/devkitarm/bin/../lib/gcc/arm-eabi/4.1.1/../../../../arm-eabi/lib\libg.a(lib_a-fseek.o)
 .glue_7t       0x0209f1a4        0x0 c:/devkitpro/devkitarm/bin/../lib/gcc/arm-eabi/4.1.1/../../../../arm-eabi/lib\libg.a(lib_a-fstatr.o)
 .glue_7t       0x0209f1a4        0x0 c:/devkitpro/devkitarm/bin/../lib/gcc/arm-eabi/4.1.1/../../../../arm-eabi/lib\libg.a(lib_a-ftell.o)
 .glue_7t       0x0209f1a4        0x0 c:/devkitpro/devkitarm/bin/../lib/gcc/arm-eabi/4.1.1/../../../../arm-eabi/lib\libg.a(lib_a-fwalk.o)
 .glue_7t       0x0209f1a4        0x0 c:/devkitpro/devkitarm/bin/../lib/gcc/arm-eabi/4.1.1/../../../../arm-eabi/lib\libg.a(lib_a-fwrite.o)
 .glue_7t       0x0209f1a4        0x0 c:/devkitpro/devkitarm/bin/../lib/gcc/arm-eabi/4.1.1/../../../../arm-eabi/lib\libg.a(lib_a-impure.o)
 .glue_7t       0x0209f1a4        0x0 c:/devkitpro/devkitarm/bin/../lib/gcc/arm-eabi/4.1.1/../../../../arm-eabi/lib\libg.a(lib_a-init.o)
 .glue_7t       0x0209f1a4        0x0 c:/devkitpro/devkitarm/bin/../lib/gcc/arm-eabi/4.1.1/../../../../arm-eabi/lib\libg.a(lib_a-iprintf.o)
 .glue_7t       0x0209f1a4        0x0 c:/devkitpro/devkitarm/bin/../lib/gcc/arm-eabi/4.1.1/../../../../arm-eabi/lib\libg.a(lib_a-makebuf.o)
 .glue_7t       0x0209f1a4        0x0 c:/devkitpro/devkitarm/bin/../lib/gcc/arm-eabi/4.1.1/../../../../arm-eabi/lib\libg.a(lib_a-malloc.o)
 .glue_7t       0x0209f1a4        0x0 c:/devkitpro/devkitarm/bin/../lib/gcc/arm-eabi/4.1.1/../../../../arm-eabi/lib\libg.a(lib_a-mallocr.o)
 .glue_7t       0x0209f1a4        0x0 c:/devkitpro/devkitarm/bin/../lib/gcc/arm-eabi/4.1.1/../../../../arm-eabi/lib\libg.a(lib_a-memcmp.o)
 .glue_7t       0x0209f1a4        0x0 c:/devkitpro/devkitarm/bin/../lib/gcc/arm-eabi/4.1.1/../../../../arm-eabi/lib\libg.a(lib_a-memcpy.o)
 .glue_7t       0x0209f1a4        0x0 c:/devkitpro/devkitarm/bin/../lib/gcc/arm-eabi/4.1.1/../../../../arm-eabi/lib\libg.a(lib_a-memmove.o)
 .glue_7t       0x0209f1a4        0x0 c:/devkitpro/devkitarm/bin/../lib/gcc/arm-eabi/4.1.1/../../../../arm-eabi/lib\libg.a(lib_a-memset.o)
 .glue_7t       0x0209f1a4        0x0 c:/devkitpro/devkitarm/bin/../lib/gcc/arm-eabi/4.1.1/../../../../arm-eabi/lib\libg.a(lib_a-mlock.o)
 .glue_7t       0x0209f1a4        0x0 c:/devkitpro/devkitarm/bin/../lib/gcc/arm-eabi/4.1.1/../../../../arm-eabi/lib\libg.a(lib_a-openr.o)
 .glue_7t       0x0209f1a4        0x0 c:/devkitpro/devkitarm/bin/../lib/gcc/arm-eabi/4.1.1/../../../../arm-eabi/lib\libg.a(lib_a-printf.o)
 .glue_7t       0x0209f1a4        0x0 c:/devkitpro/devkitarm/bin/../lib/gcc/arm-eabi/4.1.1/../../../../arm-eabi/lib\libg.a(lib_a-reent.o)
 .glue_7t       0x0209f1a4        0x0 c:/devkitpro/devkitarm/bin/../lib/gcc/arm-eabi/4.1.1/../../../../arm-eabi/lib\libg.a(lib_a-refill.o)
 .glue_7t       0x0209f1a4        0x0 c:/devkitpro/devkitarm/bin/../lib/gcc/arm-eabi/4.1.1/../../../../arm-eabi/lib\libg.a(lib_a-sbrkr.o)
 .glue_7t       0x0209f1a4        0x0 c:/devkitpro/devkitarm/bin/../lib/gcc/arm-eabi/4.1.1/../../../../arm-eabi/lib\libg.a(lib_a-setvbuf.o)
 .glue_7t       0x0209f1a4        0x0 c:/devkitpro/devkitarm/bin/../lib/gcc/arm-eabi/4.1.1/../../../../arm-eabi/lib\libg.a(lib_a-siprintf.o)
 .glue_7t       0x0209f1a4        0x0 c:/devkitpro/devkitarm/bin/../lib/gcc/arm-eabi/4.1.1/../../../../arm-eabi/lib\libg.a(lib_a-siscanf.o)
 .glue_7t       0x0209f1a4        0x0 c:/devkitpro/devkitarm/bin/../lib/gcc/arm-eabi/4.1.1/../../../../arm-eabi/lib\libg.a(lib_a-sprintf.o)
 .glue_7t       0x0209f1a4        0x0 c:/devkitpro/devkitarm/bin/../lib/gcc/arm-eabi/4.1.1/../../../../arm-eabi/lib\libg.a(lib_a-stdio.o)
 .glue_7t       0x0209f1a4        0x0 c:/devkitpro/devkitarm/bin/../lib/gcc/arm-eabi/4.1.1/../../../../arm-eabi/lib\libg.a(lib_a-strcasecmp.o)
 .glue_7t       0x0209f1a4        0x0 c:/devkitpro/devkitarm/bin/../lib/gcc/arm-eabi/4.1.1/../../../../arm-eabi/lib\libg.a(lib_a-strcat.o)
 .glue_7t       0x0209f1a4        0x0 c:/devkitpro/devkitarm/bin/../lib/gcc/arm-eabi/4.1.1/../../../../arm-eabi/lib\libg.a(lib_a-strchr.o)
 .glue_7t       0x0209f1a4        0x0 c:/devkitpro/devkitarm/bin/../lib/gcc/arm-eabi/4.1.1/../../../../arm-eabi/lib\libg.a(lib_a-strcpy.o)
 .glue_7t       0x0209f1a4        0x0 c:/devkitpro/devkitarm/bin/../lib/gcc/arm-eabi/4.1.1/../../../../arm-eabi/lib\libg.a(lib_a-strlcat.o)
 .glue_7t       0x0209f1a4        0x0 c:/devkitpro/devkitarm/bin/../lib/gcc/arm-eabi/4.1.1/../../../../arm-eabi/lib\libg.a(lib_a-strlcpy.o)
 .glue_7t       0x0209f1a4        0x0 c:/devkitpro/devkitarm/bin/../lib/gcc/arm-eabi/4.1.1/../../../../arm-eabi/lib\libg.a(lib_a-strlen.o)
 .glue_7t       0x0209f1a4        0x0 c:/devkitpro/devkitarm/bin/../lib/gcc/arm-eabi/4.1.1/../../../../arm-eabi/lib\libg.a(lib_a-strncasecmp.o)
 .glue_7t       0x0209f1a4        0x0 c:/devkitpro/devkitarm/bin/../lib/gcc/arm-eabi/4.1.1/../../../../arm-eabi/lib\libg.a(lib_a-strncat.o)
 .glue_7t       0x0209f1a4        0x0 c:/devkitpro/devkitarm/bin/../lib/gcc/arm-eabi/4.1.1/../../../../arm-eabi/lib\libg.a(lib_a-strncmp.o)
 .glue_7t       0x0209f1a4        0x0 c:/devkitpro/devkitarm/bin/../lib/gcc/arm-eabi/4.1.1/../../../../arm-eabi/lib\libg.a(lib_a-strncpy.o)
 .glue_7t       0x0209f1a4        0x0 c:/devkitpro/devkitarm/bin/../lib/gcc/arm-eabi/4.1.1/../../../../arm-eabi/lib\libg.a(lib_a-strnlen.o)
 .glue_7t       0x0209f1a4        0x0 c:/devkitpro/devkitarm/bin/../lib/gcc/arm-eabi/4.1.1/../../../../arm-eabi/lib\libg.a(lib_a-strpbrk.o)
 .glue_7t       0x0209f1a4        0x0 c:/devkitpro/devkitarm/bin/../lib/gcc/arm-eabi/4.1.1/../../../../arm-eabi/lib\libg.a(lib_a-strrchr.o)
 .glue_7t       0x0209f1a4        0x0 c:/devkitpro/devkitarm/bin/../lib/gcc/arm-eabi/4.1.1/../../../../arm-eabi/lib\libg.a(lib_a-strtol.o)
 .glue_7t       0x0209f1a4        0x0 c:/devkitpro/devkitarm/bin/../lib/gcc/arm-eabi/4.1.1/../../../../arm-eabi/lib\libg.a(lib_a-strupr.o)
 .glue_7t       0x0209f1a4        0x0 c:/devkitpro/devkitarm/bin/../lib/gcc/arm-eabi/4.1.1/../../../../arm-eabi/lib\libg.a(lib_a-vfiprintf.o)
 .glue_7t       0x0209f1a4        0x0 c:/devkitpro/devkitarm/bin/../lib/gcc/arm-eabi/4.1.1/../../../../arm-eabi/lib\libg.a(lib_a-vfiscanf.o)
 .glue_7t       0x0209f1a4        0x0 c:/devkitpro/devkitarm/bin/../lib/gcc/arm-eabi/4.1.1/../../../../arm-eabi/lib\libg.a(lib_a-vfprintf.o)
 .glue_7t       0x0209f1a4        0x0 c:/devkitpro/devkitarm/bin/../lib/gcc/arm-eabi/4.1.1/../../../../arm-eabi/lib\libg.a(lib_a-wcrtomb.o)
 .glue_7t       0x0209f1a4        0x0 c:/devkitpro/devkitarm/bin/../lib/gcc/arm-eabi/4.1.1/../../../../arm-eabi/lib\libg.a(lib_a-wcsrtombs.o)
 .glue_7t       0x0209f1a4        0x0 c:/devkitpro/devkitarm/bin/../lib/gcc/arm-eabi/4.1.1/../../../../arm-eabi/lib\libg.a(lib_a-wctomb_r.o)
 .glue_7t       0x0209f1a4        0x0 c:/devkitpro/devkitarm/bin/../lib/gcc/arm-eabi/4.1.1/../../../../arm-eabi/lib\libg.a(lib_a-writer.o)
 .glue_7t       0x0209f1a4        0x0 c:/devkitpro/devkitarm/bin/../lib/gcc/arm-eabi/4.1.1/../../../../arm-eabi/lib\libg.a(lib_a-wsetup.o)
 .glue_7t       0x0209f1a4        0x0 c:/devkitpro/devkitarm/bin/../lib/gcc/arm-eabi/4.1.1/../../../../arm-eabi/lib\libg.a(lib_a-closer.o)
 .glue_7t       0x0209f1a4        0x0 c:/devkitpro/devkitarm/bin/../lib/gcc/arm-eabi/4.1.1/../../../../arm-eabi/lib\libg.a(lib_a-dtoa.o)
 .glue_7t       0x0209f1a4        0x0 c:/devkitpro/devkitarm/bin/../lib/gcc/arm-eabi/4.1.1/../../../../arm-eabi/lib\libg.a(lib_a-flags.o)
 .glue_7t       0x0209f1a4        0x0 c:/devkitpro/devkitarm/bin/../lib/gcc/arm-eabi/4.1.1/../../../../arm-eabi/lib\libg.a(lib_a-fvwrite.o)
 .glue_7t       0x0209f1a4        0x0 c:/devkitpro/devkitarm/bin/../lib/gcc/arm-eabi/4.1.1/../../../../arm-eabi/lib\libg.a(lib_a-iswspace.o)
 .glue_7t       0x0209f1a4        0x0 c:/devkitpro/devkitarm/bin/../lib/gcc/arm-eabi/4.1.1/../../../../arm-eabi/lib\libg.a(lib_a-locale.o)
 .glue_7t       0x0209f1a4        0x0 c:/devkitpro/devkitarm/bin/../lib/gcc/arm-eabi/4.1.1/../../../../arm-eabi/lib\libg.a(lib_a-lseekr.o)
 .glue_7t       0x0209f1a4        0x0 c:/devkitpro/devkitarm/bin/../lib/gcc/arm-eabi/4.1.1/../../../../arm-eabi/lib\libg.a(lib_a-mbrtowc.o)
 .glue_7t       0x0209f1a4        0x0 c:/devkitpro/devkitarm/bin/../lib/gcc/arm-eabi/4.1.1/../../../../arm-eabi/lib\libg.a(lib_a-mbtowc_r.o)
 .glue_7t       0x0209f1a4        0x0 c:/devkitpro/devkitarm/bin/../lib/gcc/arm-eabi/4.1.1/../../../../arm-eabi/lib\libg.a(lib_a-memchr.o)
 .glue_7t       0x0209f1a4        0x0 c:/devkitpro/devkitarm/bin/../lib/gcc/arm-eabi/4.1.1/../../../../arm-eabi/lib\libg.a(lib_a-mprec.o)
 .glue_7t       0x0209f1a4        0x0 c:/devkitpro/devkitarm/bin/../lib/gcc/arm-eabi/4.1.1/../../../../arm-eabi/lib\libg.a(lib_a-readr.o)
 .glue_7t       0x0209f1a4        0x0 c:/devkitpro/devkitarm/bin/../lib/gcc/arm-eabi/4.1.1/../../../../arm-eabi/lib\libg.a(lib_a-reallocr.o)
 .glue_7t       0x0209f1a4        0x0 c:/devkitpro/devkitarm/bin/../lib/gcc/arm-eabi/4.1.1/../../../../arm-eabi/lib\libg.a(lib_a-s_isinfd.o)
 .glue_7t       0x0209f1a4        0x0 c:/devkitpro/devkitarm/bin/../lib/gcc/arm-eabi/4.1.1/../../../../arm-eabi/lib\libg.a(lib_a-s_isnand.o)
 .glue_7t       0x0209f1a4        0x0 c:/devkitpro/devkitarm/bin/../lib/gcc/arm-eabi/4.1.1/../../../../arm-eabi/lib\libg.a(lib_a-sccl.o)
 .glue_7t       0x0209f1a4        0x0 c:/devkitpro/devkitarm/bin/../lib/gcc/arm-eabi/4.1.1/../../../../arm-eabi/lib\libg.a(lib_a-strcmp.o)
 .glue_7t       0x0209f1a4        0x0 c:/devkitpro/devkitarm/bin/../lib/gcc/arm-eabi/4.1.1/../../../../arm-eabi/lib\libg.a(lib_a-strtoul.o)
 .glue_7t       0x0209f1a4        0x0 c:/devkitpro/devkitarm/bin/../lib/gcc/arm-eabi/4.1.1/../../../../arm-eabi/lib\libg.a(lib_a-ungetc.o)
 .glue_7t       0x0209f1a4        0x0 c:/devkitpro/devkitarm/bin/../lib/gcc/arm-eabi/4.1.1\libgcc.a(_addsubdf3.o)
 .glue_7t       0x0209f1a4        0x0 c:/devkitpro/devkitarm/bin/../lib/gcc/arm-eabi/4.1.1\libgcc.a(_muldivdf3.o)
 .glue_7t       0x0209f1a4        0x0 c:/devkitpro/devkitarm/bin/../lib/gcc/arm-eabi/4.1.1\libgcc.a(_cmpdf2.o)
 .glue_7t       0x0209f1a4        0x0 c:/devkitpro/devkitarm/bin/../lib/gcc/arm-eabi/4.1.1\libgcc.a(_fixdfsi.o)
 .glue_7t       0x0209f1a4        0x0 c:/devkitpro/devkitarm/bin/../lib/gcc/arm-eabi/4.1.1/../../../../arm-eabi/lib\libsysbase.a(iosupport.o)
 .glue_7t       0x0209f1a4        0x0 c:/devkitpro/devkitarm/bin/../lib/gcc/arm-eabi/4.1.1/../../../../arm-eabi/lib\libsysbase.a(close.o)
 .glue_7t       0x0209f1a4        0x0 c:/devkitpro/devkitarm/bin/../lib/gcc/arm-eabi/4.1.1/../../../../arm-eabi/lib\libsysbase.a(fstat.o)
 .glue_7t       0x0209f1a4        0x0 c:/devkitpro/devkitarm/bin/../lib/gcc/arm-eabi/4.1.1/../../../../arm-eabi/lib\libsysbase.a(isatty.o)
 .glue_7t       0x0209f1a4        0x0 c:/devkitpro/devkitarm/bin/../lib/gcc/arm-eabi/4.1.1/../../../../arm-eabi/lib\libsysbase.a(lseek.o)
 .glue_7t       0x0209f1a4        0x0 c:/devkitpro/devkitarm/bin/../lib/gcc/arm-eabi/4.1.1/../../../../arm-eabi/lib\libsysbase.a(open.o)
 .glue_7t       0x0209f1a4        0x0 c:/devkitpro/devkitarm/bin/../lib/gcc/arm-eabi/4.1.1/../../../../arm-eabi/lib\libsysbase.a(read.o)
 .glue_7t       0x0209f1a4        0x0 c:/devkitpro/devkitarm/bin/../lib/gcc/arm-eabi/4.1.1/../../../../arm-eabi/lib\libsysbase.a(sbrk.o)
 .glue_7t       0x0209f1a4        0x0 c:/devkitpro/devkitarm/bin/../lib/gcc/arm-eabi/4.1.1/../../../../arm-eabi/lib\libsysbase.a(write.o)
 .glue_7t       0x0209f1a4        0x0 c:/devkitpro/devkitarm/bin/../lib/gcc/arm-eabi/4.1.1/../../../../arm-eabi/lib\libsysbase.a(malloc_vars.o)
 .glue_7t       0x0209f1a4        0x0 c:/devkitpro/devkitarm/bin/../lib/gcc/arm-eabi/4.1.1/../../../../arm-eabi/lib\libsysbase.a(chdir.o)
 .glue_7t       0x0209f1a4        0x0 c:/devkitpro/devkitarm/bin/../lib/gcc/arm-eabi/4.1.1/../../../../arm-eabi/lib\libsysbase.a(dir.o)
 .glue_7t       0x0209f1a4       0xc8 c:/devkitpro/devkitarm/bin/../lib/gcc/arm-eabi/4.1.1/crtend.o
                0x0209f1d4                __memset_from_thumb
                0x0209f228                __strncasecmp_change_to_arm
                0x0209f204                __strrchr_from_thumb
                0x0209f1e8                ____aeabi_uidiv_change_to_arm
                0x0209f1d8                __memset_change_to_arm
                0x0209f24c                ____aeabi_idivmod_from_thumb
                0x0209f1f4                ___SCSD_writeData_s_from_thumb
                0x0209f1fc                __strncpy_from_thumb
                0x0209f1e0                __malloc_change_to_arm
                0x0209f1b8                __strlen_change_to_arm
                0x0209f244                ____aeabi_idiv_from_thumb
                0x0209f1c0                __strchr_change_to_arm
                0x0209f1ec                __memcpy_from_thumb
                0x0209f1e4                ____aeabi_uidiv_from_thumb
                0x0209f1b0                __chdir_change_to_arm
                0x0209f240                __strupr_change_to_arm
                0x0209f1c8                __strncmp_change_to_arm
                0x0209f224                __strncasecmp_from_thumb
                0x0209f23c                __strupr_from_thumb
                0x0209f220                __strcasecmp_change_to_arm
                0x0209f20c                ____aeabi_uidivmod_from_thumb
                0x0209f258                __iprintf_change_to_arm
                0x0209f238                __memmove_change_to_arm
                0x0209f1bc                __strchr_from_thumb
                0x0209f268                __siscanf_change_to_arm
                0x0209f218                __strnlen_change_to_arm
                0x0209f1a4                __AddDevice_from_thumb
                0x0209f254                __iprintf_from_thumb
                0x0209f234                __memmove_from_thumb
                0x0209f1ac                __chdir_from_thumb
                0x0209f208                __strrchr_change_to_arm
                0x0209f22c                __strpbrk_from_thumb
                0x0209f210                ____aeabi_uidivmod_change_to_arm
                0x0209f1a8                __AddDevice_change_to_arm
                0x0209f21c                __strcasecmp_from_thumb
                0x0209f214                __strnlen_from_thumb
                0x0209f264                __siscanf_from_thumb
                0x0209f1f8                ___SCSD_writeData_s_change_to_arm
                0x0209f260                __setvbuf_change_to_arm
                0x0209f1d0                __free_change_to_arm
                0x0209f1b4                __strlen_from_thumb
                0x0209f1dc                __malloc_from_thumb
                0x0209f250                ____aeabi_idivmod_change_to_arm
                0x0209f1f0                __memcpy_change_to_arm
                0x0209f230                __strpbrk_change_to_arm
                0x0209f25c                __setvbuf_from_thumb
                0x0209f200                __strncpy_change_to_arm
                0x0209f1c4                __strncmp_from_thumb
                0x0209f248                ____aeabi_idiv_change_to_arm
                0x0209f1cc                __free_from_thumb
 .glue_7t       0x0209f26c        0x0 c:/devkitpro/devkitarm/bin/../lib/gcc/arm-eabi/4.1.1/crtn.o
                0x0209f26c                . = ALIGN (0x4)

.fini           0x0209f26c       0x18
 *(.fini)
 .fini          0x0209f26c        0xc c:/devkitpro/devkitarm/bin/../lib/gcc/arm-eabi/4.1.1/crti.o
                0x0209f26c                _fini
 .fini          0x0209f278        0xc c:/devkitpro/devkitarm/bin/../lib/gcc/arm-eabi/4.1.1/crtn.o
                0x0209f284                __text_end = .

.rodata         0x0209f288     0x3468
 *(.rodata)
 .rodata        0x0209f288        0xc Area.o
 .rodata        0x0209f294      0x1f0 Disa.o
 .rodata        0x0209f484        0x4 Draw.o
 .rodata        0x0209f488        0x2 Pico.o
 *fill*         0x0209f48a        0x2 ff
 .rodata        0x0209f48c       0x4c C:/devkitPro/libnds/lib\libfat.a(libfat.o)
                0x0209f48c                dotab_fat
 .rodata        0x0209f4d8       0x44 C:/devkitPro/libnds/lib\libfat.a(io_m3cf.o)
                0x0209f4d8                _io_m3cf
 .rodata        0x0209f51c       0x20 C:/devkitPro/libnds/lib\libfat.a(io_m3sd.o)
                0x0209f51c                _io_m3sd
 .rodata        0x0209f53c       0x44 C:/devkitPro/libnds/lib\libfat.a(io_mpcf.o)
                0x0209f53c                _io_mpcf
 .rodata        0x0209f580       0x30 C:/devkitPro/libnds/lib\libfat.a(io_njsd.o)
                0x0209f580                _io_njsd
 .rodata        0x0209f5b0       0x20 C:/devkitPro/libnds/lib\libfat.a(io_nmmc.o)
                0x0209f5b0                _io_nmmc
 .rodata        0x0209f5d0       0x44 C:/devkitPro/libnds/lib\libfat.a(io_sccf.o)
                0x0209f5d0                _io_sccf
 .rodata        0x0209f614       0x20 C:/devkitPro/libnds/lib\libfat.a(io_scsd.o)
                0x0209f614                _io_scsd
 .rodata        0x0209f634       0x34 C:/devkitPro/libnds/lib\libfat.a(directory.o)
                0x0209f634                LFN_offset_table
 .rodata        0x0209f668      0x404 C:/devkitPro/libnds/lib\libnds9.a(COS.o)
                0x0209f668                COS_bin_size
                0x0209fa6c                COS_bin_end
                0x0209f66c                COS_bin
 .rodata        0x0209fa6c      0x120 C:/devkitPro/libnds/lib\libnds9.a(console.o)
                0x0209fb40                dotab_stdout
 .rodata        0x0209fb8c        0x8 C:/devkitPro/libnds/lib\libnds9.a(card.o)
 .rodata        0x0209fb94     0x2004 C:/devkitPro/libnds/lib\libnds9.a(default_font.o)
                0x020a1b98                default_font_bin_end
                0x0209fb94                default_font_bin_size
                0x0209fb98                default_font_bin
 .rodata        0x020a1b98      0x101 c:/devkitpro/devkitarm/bin/../lib/gcc/arm-eabi/4.1.1/../../../../arm-eabi/lib\libg.a(lib_a-ctype_.o)
                0x020a1b98                _ctype_
 *fill*         0x020a1c99        0x3 ff
 .rodata        0x020a1c9c        0x4 c:/devkitpro/devkitarm/bin/../lib/gcc/arm-eabi/4.1.1/../../../../arm-eabi/lib\libg.a(lib_a-impure.o)
                0x020a1c9c                _global_impure_ptr
 .rodata        0x020a1ca0       0x20 c:/devkitpro/devkitarm/bin/../lib/gcc/arm-eabi/4.1.1/../../../../arm-eabi/lib\libg.a(lib_a-vfiprintf.o)
 .rodata        0x020a1cc0       0x22 c:/devkitpro/devkitarm/bin/../lib/gcc/arm-eabi/4.1.1/../../../../arm-eabi/lib\libg.a(lib_a-vfiscanf.o)
 .rodata        0x020a1ce2       0x20 c:/devkitpro/devkitarm/bin/../lib/gcc/arm-eabi/4.1.1/../../../../arm-eabi/lib\libg.a(lib_a-vfprintf.o)
 *fill*         0x020a1d02        0x2 ff
 .rodata        0x020a1d04       0x34 c:/devkitpro/devkitarm/bin/../lib/gcc/arm-eabi/4.1.1/../../../../arm-eabi/lib\libg.a(lib_a-locale.o)
 .rodata        0x020a1d38      0x128 c:/devkitpro/devkitarm/bin/../lib/gcc/arm-eabi/4.1.1/../../../../arm-eabi/lib\libg.a(lib_a-mprec.o)
                0x020a1e28                __mprec_tinytens
                0x020a1d38                __mprec_tens
                0x020a1e00                __mprec_bigtens
 .rodata        0x020a1e60       0x4c c:/devkitpro/devkitarm/bin/../lib/gcc/arm-eabi/4.1.1/../../../../arm-eabi/lib\libsysbase.a(iosupport.o)
                0x020a1e60                dotab_stdnull
 .rodata        0x020a1eac        0xc c:/devkitpro/devkitarm/bin/../lib/gcc/arm-eabi/4.1.1/../../../../arm-eabi/lib\libsysbase.a(chdir.o)
                0x020a1eac                DIRECTORY_SEPARATOR
                0x020a1eb0                DIRECTORY_THIS
                0x020a1eb4                DIRECTORY_PARENT
 *all.rodata*(*)
 *(.roda)
 *(.rodata.*)
 .rodata.str1.4
                0x020a1eb8       0x91 file.o
                                 0x9c (size before relaxing)
 *fill*         0x020a1f49        0x3 ff
 .rodata.str1.4
                0x020a1f4c      0x1f4 main.o
                                0x200 (size before relaxing)
 .rodata.str1.4
                0x020a2140       0x36 Area.o
                                 0x38 (size before relaxing)
 *fill*         0x020a2176        0x2 ff
 .rodata.str1.4
                0x020a2178      0x47f Disa.o
                                0x498 (size before relaxing)
 *fill*         0x020a25f7        0x1 ff
 .rodata.str1.4
                0x020a25f8        0xc C:/devkitPro/libnds/lib\libfat.a(libfat.o)
 .rodata.str1.4
                0x00000000        0x4 C:/devkitPro/libnds/lib\libfat.a(partition.o)
 .rodata.str1.4
                0x020a2604       0x1e C:/devkitPro/libnds/lib\libfat.a(directory.o)
                                 0x28 (size before relaxing)
 *fill*         0x020a2622        0x2 ff
 .rodata.str1.4
                0x020a2624       0x24 C:/devkitPro/libnds/lib\libnds9.a(console.o)
                                 0x2c (size before relaxing)
 .rodata.str1.4
                0x020a2648        0x2 c:/devkitpro/devkitarm/bin/../lib/gcc/arm-eabi/4.1.1/../../../../arm-eabi/lib\libg.a(lib_a-impure.o)
                                  0x4 (size before relaxing)
 *fill*         0x020a264a        0x2 ff
 .rodata.str1.4
                0x020a264c       0x4b c:/devkitpro/devkitarm/bin/../lib/gcc/arm-eabi/4.1.1/../../../../arm-eabi/lib\libg.a(lib_a-vfiprintf.o)
                                 0x4c (size before relaxing)
 *fill*         0x020a2697        0x1 ff
 .rodata.str1.4
                0x020a2698       0x12 c:/devkitpro/devkitarm/bin/../lib/gcc/arm-eabi/4.1.1/../../../../arm-eabi/lib\libg.a(lib_a-vfprintf.o)
                                 0x64 (size before relaxing)
 *fill*         0x020a26aa        0x2 ff
 .rodata.str1.4
                0x020a26ac       0x1e c:/devkitpro/devkitarm/bin/../lib/gcc/arm-eabi/4.1.1/../../../../arm-eabi/lib\libg.a(lib_a-wctomb_r.o)
                                 0x20 (size before relaxing)
 *fill*         0x020a26ca        0x2 ff
 .rodata.str1.4
                0x020a26cc       0x10 c:/devkitpro/devkitarm/bin/../lib/gcc/arm-eabi/4.1.1/../../../../arm-eabi/lib\libg.a(lib_a-dtoa.o)
                                 0x14 (size before relaxing)
 .rodata.str1.4
                0x020a26dc        0xb c:/devkitpro/devkitarm/bin/../lib/gcc/arm-eabi/4.1.1/../../../../arm-eabi/lib\libg.a(lib_a-locale.o)
                                 0x18 (size before relaxing)
 .rodata.str1.4
                0x00000000        0x4 c:/devkitpro/devkitarm/bin/../lib/gcc/arm-eabi/4.1.1/../../../../arm-eabi/lib\libg.a(lib_a-mbrtowc.o)
 *fill*         0x020a26e7        0x1 ff
 .rodata.str1.4
                0x020a26e8        0x8 c:/devkitpro/devkitarm/bin/../lib/gcc/arm-eabi/4.1.1/../../../../arm-eabi/lib\libsysbase.a(iosupport.o)
 *(.gnu.linkonce.r*)
                0x020a26f0                . = ALIGN (0x4)

.ARM.extab
 *(.ARM.extab* .gnu.linkonce.armextab.*)
                0x020a26f0                __exidx_start = .

.ARM.exidx
 *(.ARM.exidx* .gnu.linkonce.armexidx.*)
                0x020a26f0                __exidx_end = .
                0x020a26f0                . = ALIGN (0x4)
                0x020a26f0                PROVIDE (__preinit_array_start, .)

.preinit_array
 *(.preinit_array)
                0x020a26f0                PROVIDE (__preinit_array_end, .)
                0x020a26f0                PROVIDE (__init_array_start, .)

.init_array     0x020a26f0        0x4
 *(.init_array)
 .init_array    0x020a26f0        0x4 c:/devkitpro/devkitarm/bin/../lib/gcc/arm-eabi/4.1.1/crtbegin.o
                0x020a26f4                PROVIDE (__init_array_end, .)
                0x020a26f4                PROVIDE (__fini_array_start, .)

.fini_array     0x020a26f4        0x4
 *(.fini_array)
 .fini_array    0x020a26f4        0x4 c:/devkitpro/devkitarm/bin/../lib/gcc/arm-eabi/4.1.1/crtbegin.o
                0x020a26f8                PROVIDE (__fini_array_end, .)

.ctors          0x020a26f8        0x0
 *crtbegin.o(.ctors)
 *(EXCLUDE_FILE(*crtend.o) .ctors)
 *(SORT(.ctors.*))
 *(.ctors)
                0x020a26f8                . = ALIGN (0x4)

.dtors          0x020a26f8        0x0
 *crtbegin.o(.dtors)
 *(EXCLUDE_FILE(*crtend.o) .dtors)
 *(SORT(.dtors.*))
 *(.dtors)
                0x020a26f8                . = ALIGN (0x4)

.eh_frame       0x020a26f8        0x4
 *(.eh_frame)
 .eh_frame      0x020a26f8        0x0 c:/devkitpro/devkitarm/bin/../lib/gcc/arm-eabi/4.1.1/crtbegin.o
 .eh_frame      0x020a26f8        0x4 c:/devkitpro/devkitarm/bin/../lib/gcc/arm-eabi/4.1.1/crtend.o
                0x020a26fc                . = ALIGN (0x4)

.gcc_except_table
                0x020a26fc        0x0
 *(.gcc_except_table)
                0x020a26fc                . = ALIGN (0x4)

.jcr            0x020a26fc        0x4
 *(.jcr)
 .jcr           0x020a26fc        0x0 c:/devkitpro/devkitarm/bin/../lib/gcc/arm-eabi/4.1.1/crtbegin.o
 .jcr           0x020a26fc        0x4 c:/devkitpro/devkitarm/bin/../lib/gcc/arm-eabi/4.1.1/crtend.o

.got
 *(.got.plt)
 *(.got)
 *(.rel.got)

.ewram          0x020a2700        0x0
                0x020a2700                __ewram_start = <code 342> (.)
 *(.ewram)
 *ewram.*(.text)
                0x020a2700                . = ALIGN (0x4)

.data           0x020a2700      0xe34
                0x020a2700                __data_start = <code 342> (.)
 *(.data)
 .data          0x020a2700        0x0 c:/devkitpro/devkitarm/bin/../lib/gcc/arm-eabi/4.1.1/../../../../arm-eabi/lib/ds_arm9_crt0.o
 .data          0x020a2700        0x0 c:/devkitpro/devkitarm/bin/../lib/gcc/arm-eabi/4.1.1/crti.o
 .data          0x020a2700        0x4 c:/devkitpro/devkitarm/bin/../lib/gcc/arm-eabi/4.1.1/crtbegin.o
                0x020a2700                __dso_handle
 .data          0x020a2704      0x108 file.o
                0x020a2808                cursorLine
                0x020a2704                mapName
                0x020a2804                cursorPos
 .data          0x020a280c        0x0 m3sd.o
 .data          0x020a280c       0x18 main.o
                0x020a2814                ydyval
                0x020a2820                cy
                0x020a281c                cx
                0x020a2818                needswap
                0x020a280c                choosingfile
                0x020a2810                xdxval
 .data          0x020a2824        0x0 mz80.o
 .data          0x020a2824        0x0 sn76496.o
 .data          0x020a2824        0x0 sound.o
 .data          0x020a2824        0x0 ym2612.o
 .data          0x020a2824        0x8 Area.o
                0x020a2824                areaRead
                0x020a2828                areaWrite
 .data          0x020a282c        0x0 Cart.o
 .data          0x020a282c       0x40 Disa.o
 .data          0x020a286c        0x0 Draw.o
 .data          0x020a286c        0x4 Draw2.o
                0x020a286c                PicoCramHigh
 .data          0x020a2870        0x0 Draw3.o
 .data          0x020a2870        0x0 Memory.o
 .data          0x020a2870        0x8 Pico.o
                0x020a2870                PicoVer
                0x020a2874                PicoCram
 .data          0x020a2878        0x0 Sek.o
 .data          0x020a2878        0x0 Timer.o
 .data          0x020a2878        0x4 Utils.o
                0x020a2878                PicuAnd
 .data          0x020a287c        0x0 VideoPort.o
 .data          0x020a287c        0x0 Cyclone.o
 .data          0x020a287c        0x0 DrZ80.o
 .data          0x020a287c        0x0 ym2612_helper.o
 .data          0x020a287c        0x0 Draw2_asm.o
 .data          0x020a287c        0x0 C:/devkitPro/libnds/lib\libfat.a(libfat.o)
 .data          0x020a287c        0x4 C:/devkitPro/libnds/lib\libfat.a(partition.o)
                0x020a287c                DEVICE_NAME
 .data          0x020a2880       0x20 C:/devkitPro/libnds/lib\libfat.a(disc.o)
                0x020a2880                ioInterfaces
 .data          0x020a28a0        0x0 C:/devkitPro/libnds/lib\libfat.a(io_m3cf.o)
 .data          0x020a28a0        0x0 C:/devkitPro/libnds/lib\libfat.a(io_m3sd.o)
 .data          0x020a28a0        0x0 C:/devkitPro/libnds/lib\libfat.a(io_mpcf.o)
 .data          0x020a28a0        0x0 C:/devkitPro/libnds/lib\libfat.a(io_njsd.o)
 .data          0x020a28a0        0xc C:/devkitPro/libnds/lib\libfat.a(io_nmmc.o)
                0x020a28a0                _NMMC_spi_freq
                0x020a28a4                selectMMC_command
 .data          0x020a28ac        0x0 C:/devkitPro/libnds/lib\libfat.a(io_sccf.o)
 .data          0x020a28ac        0x0 C:/devkitPro/libnds/lib\libfat.a(io_scsd.o)
 .data          0x020a28ac        0x0 C:/devkitPro/libnds/lib\libfat.a(io_sd_common.o)
 .data          0x020a28ac        0x0 C:/devkitPro/libnds/lib\libfat.a(io_dldi.o)
 .data          0x020a28ac        0x0 C:/devkitPro/libnds/lib\libfat.a(io_scsd_s.o)
 .data          0x020a28ac        0x0 C:/devkitPro/libnds/lib\libfat.a(cache.o)
 .data          0x020a28ac        0x0 C:/devkitPro/libnds/lib\libfat.a(fatdir.o)
 .data          0x020a28ac        0x0 C:/devkitPro/libnds/lib\libfat.a(fatfile.o)
 .data          0x020a28ac        0x0 C:/devkitPro/libnds/lib\libfat.a(file_allocation_table.o)
 .data          0x020a28ac        0x0 C:/devkitPro/libnds/lib\libfat.a(filetime.o)
 .data          0x020a28ac        0x0 C:/devkitPro/libnds/lib\libfat.a(io_cf_common.o)
 .data          0x020a28ac        0x0 C:/devkitPro/libnds/lib\libfat.a(io_m3_common.o)
 .data          0x020a28ac        0x0 C:/devkitPro/libnds/lib\libfat.a(io_sc_common.o)
 .data          0x020a28ac        0x0 C:/devkitPro/libnds/lib\libfat.a(directory.o)
 .data          0x020a28ac        0x0 C:/devkitPro/libnds/lib\libnds9.a(COS.o)
 .data          0x020a28ac        0x0 C:/devkitPro/libnds/lib\libnds9.a(console.o)
 .data          0x020a28ac        0x3 C:/devkitPro/libnds/lib\libnds9.a(keys.o)
 .data          0x020a28af        0x0 C:/devkitPro/libnds/lib\libnds9.a(video.o)
 .data          0x020a28af        0x0 C:/devkitPro/libnds/lib\libnds9.a(card.o)
 .data          0x020a28af        0x0 C:/devkitPro/libnds/lib\libnds9.a(interrupts.o)
 .data          0x020a28af        0x0 C:/devkitPro/libnds/lib\libnds9.a(biosCalls.o)
 .data          0x020a28af        0x0 C:/devkitPro/libnds/lib\libnds9.a(interruptDispatcher.o)
 .data          0x020a28af        0x0 C:/devkitPro/libnds/lib\libnds9.a(default_font.o)
 .data          0x020a28af        0x0 c:/devkitpro/devkitarm/bin/../lib/gcc/arm-eabi/4.1.1\libgcc.a(_udivsi3.o)
 .data          0x020a28af        0x0 c:/devkitpro/devkitarm/bin/../lib/gcc/arm-eabi/4.1.1\libgcc.a(_divsi3.o)
 .data          0x020a28af        0x0 c:/devkitpro/devkitarm/bin/../lib/gcc/arm-eabi/4.1.1\libgcc.a(_dvmd_tls.o)
 .data          0x020a28af        0x0 c:/devkitpro/devkitarm/bin/../lib/gcc/arm-eabi/4.1.1\libgcc.a(_call_via_rX.o)
 .data          0x020a28af        0x0 c:/devkitpro/devkitarm/bin/../lib/gcc/arm-eabi/4.1.1/../../../../arm-eabi/lib\libg.a(lib_a-calloc.o)
 .data          0x020a28af        0x0 c:/devkitpro/devkitarm/bin/../lib/gcc/arm-eabi/4.1.1/../../../../arm-eabi/lib\libg.a(lib_a-callocr.o)
 *fill*         0x020a28af        0x1 ff
 .data          0x020a28b0        0x4 c:/devkitpro/devkitarm/bin/../lib/gcc/arm-eabi/4.1.1/../../../../arm-eabi/lib\libg.a(lib_a-ctype_.o)
                0x020a28b0                __ctype_ptr
 .data          0x020a28b4        0x0 c:/devkitpro/devkitarm/bin/../lib/gcc/arm-eabi/4.1.1/../../../../arm-eabi/lib\libg.a(lib_a-fclose.o)
 .data          0x020a28b4        0x0 c:/devkitpro/devkitarm/bin/../lib/gcc/arm-eabi/4.1.1/../../../../arm-eabi/lib\libg.a(lib_a-fflush.o)
 .data          0x020a28b4        0x0 c:/devkitpro/devkitarm/bin/../lib/gcc/arm-eabi/4.1.1/../../../../arm-eabi/lib\libg.a(lib_a-findfp.o)
 .data          0x020a28b4        0x0 c:/devkitpro/devkitarm/bin/../lib/gcc/arm-eabi/4.1.1/../../../../arm-eabi/lib\libg.a(lib_a-fopen.o)
 .data          0x020a28b4        0x0 c:/devkitpro/devkitarm/bin/../lib/gcc/arm-eabi/4.1.1/../../../../arm-eabi/lib\libg.a(lib_a-fread.o)
 .data          0x020a28b4        0x0 c:/devkitpro/devkitarm/bin/../lib/gcc/arm-eabi/4.1.1/../../../../arm-eabi/lib\libg.a(lib_a-freer.o)
 .data          0x020a28b4        0x0 c:/devkitpro/devkitarm/bin/../lib/gcc/arm-eabi/4.1.1/../../../../arm-eabi/lib\libg.a(lib_a-fseek.o)
 .data          0x020a28b4        0x0 c:/devkitpro/devkitarm/bin/../lib/gcc/arm-eabi/4.1.1/../../../../arm-eabi/lib\libg.a(lib_a-fstatr.o)
 .data          0x020a28b4        0x0 c:/devkitpro/devkitarm/bin/../lib/gcc/arm-eabi/4.1.1/../../../../arm-eabi/lib\libg.a(lib_a-ftell.o)
 .data          0x020a28b4        0x0 c:/devkitpro/devkitarm/bin/../lib/gcc/arm-eabi/4.1.1/../../../../arm-eabi/lib\libg.a(lib_a-fwalk.o)
 .data          0x020a28b4        0x0 c:/devkitpro/devkitarm/bin/../lib/gcc/arm-eabi/4.1.1/../../../../arm-eabi/lib\libg.a(lib_a-fwrite.o)
 *fill*         0x020a28b4        0x4 ff
 .data          0x020a28b8      0x418 c:/devkitpro/devkitarm/bin/../lib/gcc/arm-eabi/4.1.1/../../../../arm-eabi/lib\libg.a(lib_a-impure.o)
                0x020a28b8                _impure_ptr
 .data          0x020a2cd0        0x0 c:/devkitpro/devkitarm/bin/../lib/gcc/arm-eabi/4.1.1/../../../../arm-eabi/lib\libg.a(lib_a-init.o)
 .data          0x020a2cd0        0x0 c:/devkitpro/devkitarm/bin/../lib/gcc/arm-eabi/4.1.1/../../../../arm-eabi/lib\libg.a(lib_a-iprintf.o)
 .data          0x020a2cd0        0x0 c:/devkitpro/devkitarm/bin/../lib/gcc/arm-eabi/4.1.1/../../../../arm-eabi/lib\libg.a(lib_a-makebuf.o)
 .data          0x020a2cd0        0x0 c:/devkitpro/devkitarm/bin/../lib/gcc/arm-eabi/4.1.1/../../../../arm-eabi/lib\libg.a(lib_a-malloc.o)
 .data          0x020a2cd0      0x410 c:/devkitpro/devkitarm/bin/../lib/gcc/arm-eabi/4.1.1/../../../../arm-eabi/lib\libg.a(lib_a-mallocr.o)
                0x020a30dc                __malloc_sbrk_base
                0x020a2cd0                __malloc_av_
                0x020a30d8                __malloc_trim_threshold
 .data          0x020a30e0        0x0 c:/devkitpro/devkitarm/bin/../lib/gcc/arm-eabi/4.1.1/../../../../arm-eabi/lib\libg.a(lib_a-memcmp.o)
 .data          0x020a30e0        0x0 c:/devkitpro/devkitarm/bin/../lib/gcc/arm-eabi/4.1.1/../../../../arm-eabi/lib\libg.a(lib_a-memcpy.o)
 .data          0x020a30e0        0x0 c:/devkitpro/devkitarm/bin/../lib/gcc/arm-eabi/4.1.1/../../../../arm-eabi/lib\libg.a(lib_a-memmove.o)
 .data          0x020a30e0        0x0 c:/devkitpro/devkitarm/bin/../lib/gcc/arm-eabi/4.1.1/../../../../arm-eabi/lib\libg.a(lib_a-memset.o)
 .data          0x020a30e0        0x0 c:/devkitpro/devkitarm/bin/../lib/gcc/arm-eabi/4.1.1/../../../../arm-eabi/lib\libg.a(lib_a-mlock.o)
 .data          0x020a30e0        0x0 c:/devkitpro/devkitarm/bin/../lib/gcc/arm-eabi/4.1.1/../../../../arm-eabi/lib\libg.a(lib_a-openr.o)
 .data          0x020a30e0        0x0 c:/devkitpro/devkitarm/bin/../lib/gcc/arm-eabi/4.1.1/../../../../arm-eabi/lib\libg.a(lib_a-printf.o)
 .data          0x020a30e0        0x0 c:/devkitpro/devkitarm/bin/../lib/gcc/arm-eabi/4.1.1/../../../../arm-eabi/lib\libg.a(lib_a-reent.o)
 .data          0x020a30e0        0x0 c:/devkitpro/devkitarm/bin/../lib/gcc/arm-eabi/4.1.1/../../../../arm-eabi/lib\libg.a(lib_a-refill.o)
 .data          0x020a30e0        0x0 c:/devkitpro/devkitarm/bin/../lib/gcc/arm-eabi/4.1.1/../../../../arm-eabi/lib\libg.a(lib_a-sbrkr.o)
 .data          0x020a30e0        0x0 c:/devkitpro/devkitarm/bin/../lib/gcc/arm-eabi/4.1.1/../../../../arm-eabi/lib\libg.a(lib_a-setvbuf.o)
 .data          0x020a30e0        0x0 c:/devkitpro/devkitarm/bin/../lib/gcc/arm-eabi/4.1.1/../../../../arm-eabi/lib\libg.a(lib_a-siprintf.o)
 .data          0x020a30e0        0x0 c:/devkitpro/devkitarm/bin/../lib/gcc/arm-eabi/4.1.1/../../../../arm-eabi/lib\libg.a(lib_a-siscanf.o)
 .data          0x020a30e0        0x0 c:/devkitpro/devkitarm/bin/../lib/gcc/arm-eabi/4.1.1/../../../../arm-eabi/lib\libg.a(lib_a-sprintf.o)
 .data          0x020a30e0        0x0 c:/devkitpro/devkitarm/bin/../lib/gcc/arm-eabi/4.1.1/../../../../arm-eabi/lib\libg.a(lib_a-stdio.o)
 .data          0x020a30e0        0x0 c:/devkitpro/devkitarm/bin/../lib/gcc/arm-eabi/4.1.1/../../../../arm-eabi/lib\libg.a(lib_a-strcasecmp.o)
 .data          0x020a30e0        0x0 c:/devkitpro/devkitarm/bin/../lib/gcc/arm-eabi/4.1.1/../../../../arm-eabi/lib\libg.a(lib_a-strcat.o)
 .data          0x020a30e0        0x0 c:/devkitpro/devkitarm/bin/../lib/gcc/arm-eabi/4.1.1/../../../../arm-eabi/lib\libg.a(lib_a-strchr.o)
 .data          0x020a30e0        0x0 c:/devkitpro/devkitarm/bin/../lib/gcc/arm-eabi/4.1.1/../../../../arm-eabi/lib\libg.a(lib_a-strcpy.o)
 .data          0x020a30e0        0x0 c:/devkitpro/devkitarm/bin/../lib/gcc/arm-eabi/4.1.1/../../../../arm-eabi/lib\libg.a(lib_a-strlcat.o)
 .data          0x020a30e0        0x0 c:/devkitpro/devkitarm/bin/../lib/gcc/arm-eabi/4.1.1/../../../../arm-eabi/lib\libg.a(lib_a-strlcpy.o)
 .data          0x020a30e0        0x0 c:/devkitpro/devkitarm/bin/../lib/gcc/arm-eabi/4.1.1/../../../../arm-eabi/lib\libg.a(lib_a-strlen.o)
 .data          0x020a30e0        0x0 c:/devkitpro/devkitarm/bin/../lib/gcc/arm-eabi/4.1.1/../../../../arm-eabi/lib\libg.a(lib_a-strncasecmp.o)
 .data          0x020a30e0        0x0 c:/devkitpro/devkitarm/bin/../lib/gcc/arm-eabi/4.1.1/../../../../arm-eabi/lib\libg.a(lib_a-strncat.o)
 .data          0x020a30e0        0x0 c:/devkitpro/devkitarm/bin/../lib/gcc/arm-eabi/4.1.1/../../../../arm-eabi/lib\libg.a(lib_a-strncmp.o)
 .data          0x020a30e0        0x0 c:/devkitpro/devkitarm/bin/../lib/gcc/arm-eabi/4.1.1/../../../../arm-eabi/lib\libg.a(lib_a-strncpy.o)
 .data          0x020a30e0        0x0 c:/devkitpro/devkitarm/bin/../lib/gcc/arm-eabi/4.1.1/../../../../arm-eabi/lib\libg.a(lib_a-strnlen.o)
 .data          0x020a30e0        0x0 c:/devkitpro/devkitarm/bin/../lib/gcc/arm-eabi/4.1.1/../../../../arm-eabi/lib\libg.a(lib_a-strpbrk.o)
 .data          0x020a30e0        0x0 c:/devkitpro/devkitarm/bin/../lib/gcc/arm-eabi/4.1.1/../../../../arm-eabi/lib\libg.a(lib_a-strrchr.o)
 .data          0x020a30e0        0x0 c:/devkitpro/devkitarm/bin/../lib/gcc/arm-eabi/4.1.1/../../../../arm-eabi/lib\libg.a(lib_a-strtol.o)
 .data          0x020a30e0        0x0 c:/devkitpro/devkitarm/bin/../lib/gcc/arm-eabi/4.1.1/../../../../arm-eabi/lib\libg.a(lib_a-strupr.o)
 .data          0x020a30e0        0x0 c:/devkitpro/devkitarm/bin/../lib/gcc/arm-eabi/4.1.1/../../../../arm-eabi/lib\libg.a(lib_a-vfiprintf.o)
 .data          0x020a30e0        0x0 c:/devkitpro/devkitarm/bin/../lib/gcc/arm-eabi/4.1.1/../../../../arm-eabi/lib\libg.a(lib_a-vfiscanf.o)
 .data          0x020a30e0        0x0 c:/devkitpro/devkitarm/bin/../lib/gcc/arm-eabi/4.1.1/../../../../arm-eabi/lib\libg.a(lib_a-vfprintf.o)
 .data          0x020a30e0        0x0 c:/devkitpro/devkitarm/bin/../lib/gcc/arm-eabi/4.1.1/../../../../arm-eabi/lib\libg.a(lib_a-wcrtomb.o)
 .data          0x020a30e0        0x0 c:/devkitpro/devkitarm/bin/../lib/gcc/arm-eabi/4.1.1/../../../../arm-eabi/lib\libg.a(lib_a-wcsrtombs.o)
 .data          0x020a30e0        0x0 c:/devkitpro/devkitarm/bin/../lib/gcc/arm-eabi/4.1.1/../../../../arm-eabi/lib\libg.a(lib_a-wctomb_r.o)
 .data          0x020a30e0        0x0 c:/devkitpro/devkitarm/bin/../lib/gcc/arm-eabi/4.1.1/../../../../arm-eabi/lib\libg.a(lib_a-writer.o)
 .data          0x020a30e0        0x0 c:/devkitpro/devkitarm/bin/../lib/gcc/arm-eabi/4.1.1/../../../../arm-eabi/lib\libg.a(lib_a-wsetup.o)
 .data          0x020a30e0        0x0 c:/devkitpro/devkitarm/bin/../lib/gcc/arm-eabi/4.1.1/../../../../arm-eabi/lib\libg.a(lib_a-closer.o)
 .data          0x020a30e0        0x0 c:/devkitpro/devkitarm/bin/../lib/gcc/arm-eabi/4.1.1/../../../../arm-eabi/lib\libg.a(lib_a-dtoa.o)
 .data          0x020a30e0        0x0 c:/devkitpro/devkitarm/bin/../lib/gcc/arm-eabi/4.1.1/../../../../arm-eabi/lib\libg.a(lib_a-flags.o)
 .data          0x020a30e0        0x0 c:/devkitpro/devkitarm/bin/../lib/gcc/arm-eabi/4.1.1/../../../../arm-eabi/lib\libg.a(lib_a-fvwrite.o)
 .data          0x020a30e0        0x0 c:/devkitpro/devkitarm/bin/../lib/gcc/arm-eabi/4.1.1/../../../../arm-eabi/lib\libg.a(lib_a-iswspace.o)
 .data          0x020a30e0       0x10 c:/devkitpro/devkitarm/bin/../lib/gcc/arm-eabi/4.1.1/../../../../arm-eabi/lib\libg.a(lib_a-locale.o)
                0x020a30e0                __mb_cur_max
                0x020a30e4                __lc_ctype
 .data          0x020a30f0        0x0 c:/devkitpro/devkitarm/bin/../lib/gcc/arm-eabi/4.1.1/../../../../arm-eabi/lib\libg.a(lib_a-lseekr.o)
 .data          0x020a30f0        0x0 c:/devkitpro/devkitarm/bin/../lib/gcc/arm-eabi/4.1.1/../../../../arm-eabi/lib\libg.a(lib_a-mbrtowc.o)
 .data          0x020a30f0        0x0 c:/devkitpro/devkitarm/bin/../lib/gcc/arm-eabi/4.1.1/../../../../arm-eabi/lib\libg.a(lib_a-mbtowc_r.o)
 .data          0x020a30f0        0x0 c:/devkitpro/devkitarm/bin/../lib/gcc/arm-eabi/4.1.1/../../../../arm-eabi/lib\libg.a(lib_a-memchr.o)
 .data          0x020a30f0        0x0 c:/devkitpro/devkitarm/bin/../lib/gcc/arm-eabi/4.1.1/../../../../arm-eabi/lib\libg.a(lib_a-mprec.o)
 .data          0x020a30f0        0x0 c:/devkitpro/devkitarm/bin/../lib/gcc/arm-eabi/4.1.1/../../../../arm-eabi/lib\libg.a(lib_a-readr.o)
 .data          0x020a30f0        0x0 c:/devkitpro/devkitarm/bin/../lib/gcc/arm-eabi/4.1.1/../../../../arm-eabi/lib\libg.a(lib_a-reallocr.o)
 .data          0x020a30f0        0x0 c:/devkitpro/devkitarm/bin/../lib/gcc/arm-eabi/4.1.1/../../../../arm-eabi/lib\libg.a(lib_a-s_isinfd.o)
 .data          0x020a30f0        0x0 c:/devkitpro/devkitarm/bin/../lib/gcc/arm-eabi/4.1.1/../../../../arm-eabi/lib\libg.a(lib_a-s_isnand.o)
 .data          0x020a30f0        0x0 c:/devkitpro/devkitarm/bin/../lib/gcc/arm-eabi/4.1.1/../../../../arm-eabi/lib\libg.a(lib_a-sccl.o)
 .data          0x020a30f0        0x0 c:/devkitpro/devkitarm/bin/../lib/gcc/arm-eabi/4.1.1/../../../../arm-eabi/lib\libg.a(lib_a-strcmp.o)
 .data          0x020a30f0        0x0 c:/devkitpro/devkitarm/bin/../lib/gcc/arm-eabi/4.1.1/../../../../arm-eabi/lib\libg.a(lib_a-strtoul.o)
 .data          0x020a30f0        0x0 c:/devkitpro/devkitarm/bin/../lib/gcc/arm-eabi/4.1.1/../../../../arm-eabi/lib\libg.a(lib_a-ungetc.o)
 .data          0x020a30f0        0x0 c:/devkitpro/devkitarm/bin/../lib/gcc/arm-eabi/4.1.1\libgcc.a(_addsubdf3.o)
 .data          0x020a30f0        0x0 c:/devkitpro/devkitarm/bin/../lib/gcc/arm-eabi/4.1.1\libgcc.a(_muldivdf3.o)
 .data          0x020a30f0        0x0 c:/devkitpro/devkitarm/bin/../lib/gcc/arm-eabi/4.1.1\libgcc.a(_cmpdf2.o)
 .data          0x020a30f0        0x0 c:/devkitpro/devkitarm/bin/../lib/gcc/arm-eabi/4.1.1\libgcc.a(_fixdfsi.o)
 .data          0x020a30f0       0x44 c:/devkitpro/devkitarm/bin/../lib/gcc/arm-eabi/4.1.1/../../../../arm-eabi/lib\libsysbase.a(iosupport.o)
                0x020a30f0                devoptab_list
 .data          0x020a3134        0x0 c:/devkitpro/devkitarm/bin/../lib/gcc/arm-eabi/4.1.1/../../../../arm-eabi/lib\libsysbase.a(close.o)
 .data          0x020a3134        0x0 c:/devkitpro/devkitarm/bin/../lib/gcc/arm-eabi/4.1.1/../../../../arm-eabi/lib\libsysbase.a(fstat.o)
 .data          0x020a3134        0x0 c:/devkitpro/devkitarm/bin/../lib/gcc/arm-eabi/4.1.1/../../../../arm-eabi/lib\libsysbase.a(isatty.o)
 .data          0x020a3134        0x0 c:/devkitpro/devkitarm/bin/../lib/gcc/arm-eabi/4.1.1/../../../../arm-eabi/lib\libsysbase.a(lseek.o)
 .data          0x020a3134        0x0 c:/devkitpro/devkitarm/bin/../lib/gcc/arm-eabi/4.1.1/../../../../arm-eabi/lib\libsysbase.a(open.o)
 .data          0x020a3134        0x0 c:/devkitpro/devkitarm/bin/../lib/gcc/arm-eabi/4.1.1/../../../../arm-eabi/lib\libsysbase.a(read.o)
 .data          0x020a3134        0x0 c:/devkitpro/devkitarm/bin/../lib/gcc/arm-eabi/4.1.1/../../../../arm-eabi/lib\libsysbase.a(sbrk.o)
 .data          0x020a3134        0x0 c:/devkitpro/devkitarm/bin/../lib/gcc/arm-eabi/4.1.1/../../../../arm-eabi/lib\libsysbase.a(write.o)
 .data          0x020a3134        0x0 c:/devkitpro/devkitarm/bin/../lib/gcc/arm-eabi/4.1.1/../../../../arm-eabi/lib\libsysbase.a(malloc_vars.o)
 .data          0x020a3134      0x400 c:/devkitpro/devkitarm/bin/../lib/gcc/arm-eabi/4.1.1/../../../../arm-eabi/lib\libsysbase.a(chdir.o)
 .data          0x020a3534        0x0 c:/devkitpro/devkitarm/bin/../lib/gcc/arm-eabi/4.1.1/../../../../arm-eabi/lib\libsysbase.a(dir.o)
 .data          0x020a3534        0x0 c:/devkitpro/devkitarm/bin/../lib/gcc/arm-eabi/4.1.1/crtend.o
 .data          0x020a3534        0x0 c:/devkitpro/devkitarm/bin/../lib/gcc/arm-eabi/4.1.1/crtn.o
 *(.data.*)
 *(.gnu.linkonce.d*)
                0x020a3534                . = ALIGN (0x4)
                0x020a3534                __data_end = <code 342> (.)
                0x020a3534                __dtcm_lma = .

.dtcm           0x0b000000        0x0 load address 0x020a3534
 *(.dtcm)
 *(.dtcm.*)
                0x0b000000                . = ALIGN (0x4)
                0x0b000000                __dtcm_end = <code 342> (.)
                0x020a3534                __itcm_lma = (__dtcm_lma + SIZEOF (.dtcm))

.itcm           0x01000000      0x190 load address 0x020a3534
 *(.itcm)
 .itcm          0x01000000       0xc8 C:/devkitPro/libnds/lib\libnds9.a(interrupts.o)
                0x01000000                irqTable
 .itcm          0x010000c8       0xc8 C:/devkitPro/libnds/lib\libnds9.a(interruptDispatcher.o)
                0x010000c8                IntrMain
 *itcm.*(.text)
                0x01000190                . = ALIGN (0x4)
                0x01000190                __itcm_end = <code 342> (.)

.sbss           0x0b000000        0x0
                0x0b000000                __sbss_start = <code 342> (.)
                0x0b000000                __sbss_start__ = <code 342> (.)
 *(.sbss)
                0x0b000000                . = ALIGN (0x4)
                0x0b000000                __sbss_end = <code 342> (.)
                0x020a36c4                __bss_lma = (__itcm_lma + SIZEOF (.itcm))
                0x020a36c4                __appended_data = (__itcm_lma + SIZEOF (.itcm))

.bss            0x020a36c4    0x22b50 load address 0x020a36c4
                0x020a36c4                __bss_start = <code 342> (.)
                0x020a36c4                __bss_start__ = <code 342> (.)
 *(.dynbss)
 *(.gnu.linkonce.b*)
 *(.bss*)
 .bss           0x020a36c4        0x0 c:/devkitpro/devkitarm/bin/../lib/gcc/arm-eabi/4.1.1/../../../../arm-eabi/lib/ds_arm9_crt0.o
 .bss           0x020a36c4        0x0 c:/devkitpro/devkitarm/bin/../lib/gcc/arm-eabi/4.1.1/crti.o
 .bss           0x020a36c4       0x1c c:/devkitpro/devkitarm/bin/../lib/gcc/arm-eabi/4.1.1/crtbegin.o
 .bss           0x020a36e0       0x14 file.o
                0x020a36e4                scrollPos
                0x020a36e0                numFiles
                0x020a36f0                fileLast
                0x020a36ec                fileList
                0x020a36e8                scrollDelay
 .bss           0x020a36f4        0x0 m3sd.o
 .bss           0x020a36f4       0xa0 main.o
                0x020a3704                scalemode
                0x020a36fc                pdFrameCount
                0x020a3700                FPS
                0x020a36f8                dsFrameCount
                0x020a36f4                framebuff
 .bss           0x020a3794        0x0 mz80.o
 .bss           0x020a3794        0x0 sn76496.o
 .bss           0x020a3794        0x0 sound.o
 .bss           0x020a3794        0x0 ym2612.o
 .bss           0x020a3794        0xc Area.o
                0x020a3798                PmovFile
                0x020a3794                PicoAcb
                0x020a379c                PmovAction
 .bss           0x020a37a0        0x0 Cart.o
 .bss           0x020a37a0        0xc Disa.o
                0x020a37a0                DisaPc
                0x020a37a8                DisaWord
                0x020a37a4                DisaText
 .bss           0x020a37ac      0x2a4 Draw.o
                0x020a37b0                Scanline
                0x020a37ac                PicoScan
 .bss           0x020a3a50        0x4 Draw2.o
                0x020a3a50                PicoPrepareCram
 .bss           0x020a3a54        0x0 Draw3.o
 .bss           0x020a3a54        0x4 Memory.o
 .bss           0x020a3a58        0x8 Pico.o
                0x020a3a5c                PicoSkipFrame
                0x020a3a58                PicoOpt
 .bss           0x020a3a60        0x0 Sek.o
 .bss           0x020a3a60        0x4 Timer.o
                0x020a3a60                g_timerBaseMS
 .bss           0x020a3a64        0x0 Utils.o
 .bss           0x020a3a64        0x0 VideoPort.o
 .bss           0x020a3a64        0x0 Cyclone.o
 .bss           0x020a3a64        0x0 DrZ80.o
 .bss           0x020a3a64        0x0 ym2612_helper.o
 .bss           0x020a3a64        0x0 Draw2_asm.o
 .bss           0x020a3a64        0x0 C:/devkitPro/libnds/lib\libfat.a(libfat.o)
 .bss           0x020a3a64       0x10 C:/devkitPro/libnds/lib\libfat.a(partition.o)
                0x020a3a64                _FAT_partitions
 .bss           0x020a3a74        0x0 C:/devkitPro/libnds/lib\libfat.a(disc.o)
 .bss           0x020a3a74        0x0 C:/devkitPro/libnds/lib\libfat.a(io_m3cf.o)
 .bss           0x020a3a74        0x4 C:/devkitPro/libnds/lib\libfat.a(io_m3sd.o)
 .bss           0x020a3a78        0x0 C:/devkitPro/libnds/lib\libfat.a(io_mpcf.o)
 .bss           0x020a3a78        0x8 C:/devkitPro/libnds/lib\libfat.a(io_njsd.o)
 .bss           0x020a3a80        0x0 C:/devkitPro/libnds/lib\libfat.a(io_nmmc.o)
 .bss           0x020a3a80        0x0 C:/devkitPro/libnds/lib\libfat.a(io_sccf.o)
 .bss           0x020a3a80        0x4 C:/devkitPro/libnds/lib\libfat.a(io_scsd.o)
 .bss           0x020a3a84        0x0 C:/devkitPro/libnds/lib\libfat.a(io_sd_common.o)
 .bss           0x020a3a84        0x0 C:/devkitPro/libnds/lib\libfat.a(io_dldi.o)
 .bss           0x020a3a84        0x0 C:/devkitPro/libnds/lib\libfat.a(io_scsd_s.o)
 .bss           0x020a3a84        0x0 C:/devkitPro/libnds/lib\libfat.a(cache.o)
 .bss           0x020a3a84        0x0 C:/devkitPro/libnds/lib\libfat.a(fatdir.o)
 .bss           0x020a3a84        0x0 C:/devkitPro/libnds/lib\libfat.a(fatfile.o)
 .bss           0x020a3a84        0x0 C:/devkitPro/libnds/lib\libfat.a(file_allocation_table.o)
 .bss           0x020a3a84        0x0 C:/devkitPro/libnds/lib\libfat.a(filetime.o)
 .bss           0x020a3a84       0x24 C:/devkitPro/libnds/lib\libfat.a(io_cf_common.o)
                0x020a3a84                cfRegisters
 .bss           0x020a3aa8        0x0 C:/devkitPro/libnds/lib\libfat.a(io_m3_common.o)
 .bss           0x020a3aa8        0x0 C:/devkitPro/libnds/lib\libfat.a(io_sc_common.o)
 .bss           0x020a3aa8        0x0 C:/devkitPro/libnds/lib\libfat.a(directory.o)
 .bss           0x020a3aa8        0x0 C:/devkitPro/libnds/lib\libnds9.a(COS.o)
 .bss           0x020a3aa8       0x24 C:/devkitPro/libnds/lib\libnds9.a(console.o)
                0x020a3aa8                fontBold
 .bss           0x020a3acc        0x6 C:/devkitPro/libnds/lib\libnds9.a(keys.o)
 .bss           0x020a3ad2        0x0 C:/devkitPro/libnds/lib\libnds9.a(video.o)
 .bss           0x020a3ad2        0x0 C:/devkitPro/libnds/lib\libnds9.a(card.o)
 .bss           0x020a3ad2        0x0 C:/devkitPro/libnds/lib\libnds9.a(interrupts.o)
 .bss           0x020a3ad2        0x0 C:/devkitPro/libnds/lib\libnds9.a(biosCalls.o)
 .bss           0x020a3ad2        0x0 C:/devkitPro/libnds/lib\libnds9.a(interruptDispatcher.o)
 .bss           0x020a3ad2        0x0 C:/devkitPro/libnds/lib\libnds9.a(default_font.o)
 .bss           0x020a3ad2        0x0 c:/devkitpro/devkitarm/bin/../lib/gcc/arm-eabi/4.1.1\libgcc.a(_udivsi3.o)
 .bss           0x020a3ad2        0x0 c:/devkitpro/devkitarm/bin/../lib/gcc/arm-eabi/4.1.1\libgcc.a(_divsi3.o)
 .bss           0x020a3ad2        0x0 c:/devkitpro/devkitarm/bin/../lib/gcc/arm-eabi/4.1.1\libgcc.a(_dvmd_tls.o)
 .bss           0x020a3ad2        0x0 c:/devkitpro/devkitarm/bin/../lib/gcc/arm-eabi/4.1.1\libgcc.a(_call_via_rX.o)
 .bss           0x020a3ad2        0x0 c:/devkitpro/devkitarm/bin/../lib/gcc/arm-eabi/4.1.1/../../../../arm-eabi/lib\libg.a(lib_a-calloc.o)
 .bss           0x020a3ad2        0x0 c:/devkitpro/devkitarm/bin/../lib/gcc/arm-eabi/4.1.1/../../../../arm-eabi/lib\libg.a(lib_a-callocr.o)
 .bss           0x020a3ad2        0x0 c:/devkitpro/devkitarm/bin/../lib/gcc/arm-eabi/4.1.1/../../../../arm-eabi/lib\libg.a(lib_a-ctype_.o)
 .bss           0x020a3ad2        0x0 c:/devkitpro/devkitarm/bin/../lib/gcc/arm-eabi/4.1.1/../../../../arm-eabi/lib\libg.a(lib_a-fclose.o)
 .bss           0x020a3ad2        0x0 c:/devkitpro/devkitarm/bin/../lib/gcc/arm-eabi/4.1.1/../../../../arm-eabi/lib\libg.a(lib_a-fflush.o)
 .bss           0x020a3ad2        0x0 c:/devkitpro/devkitarm/bin/../lib/gcc/arm-eabi/4.1.1/../../../../arm-eabi/lib\libg.a(lib_a-findfp.o)
 .bss           0x020a3ad2        0x0 c:/devkitpro/devkitarm/bin/../lib/gcc/arm-eabi/4.1.1/../../../../arm-eabi/lib\libg.a(lib_a-fopen.o)
 .bss           0x020a3ad2        0x0 c:/devkitpro/devkitarm/bin/../lib/gcc/arm-eabi/4.1.1/../../../../arm-eabi/lib\libg.a(lib_a-fread.o)
 .bss           0x020a3ad2        0x0 c:/devkitpro/devkitarm/bin/../lib/gcc/arm-eabi/4.1.1/../../../../arm-eabi/lib\libg.a(lib_a-freer.o)
 .bss           0x020a3ad2        0x0 c:/devkitpro/devkitarm/bin/../lib/gcc/arm-eabi/4.1.1/../../../../arm-eabi/lib\libg.a(lib_a-fseek.o)
 .bss           0x020a3ad2        0x0 c:/devkitpro/devkitarm/bin/../lib/gcc/arm-eabi/4.1.1/../../../../arm-eabi/lib\libg.a(lib_a-fstatr.o)
 .bss           0x020a3ad2        0x0 c:/devkitpro/devkitarm/bin/../lib/gcc/arm-eabi/4.1.1/../../../../arm-eabi/lib\libg.a(lib_a-ftell.o)
 .bss           0x020a3ad2        0x0 c:/devkitpro/devkitarm/bin/../lib/gcc/arm-eabi/4.1.1/../../../../arm-eabi/lib\libg.a(lib_a-fwalk.o)
 .bss           0x020a3ad2        0x0 c:/devkitpro/devkitarm/bin/../lib/gcc/arm-eabi/4.1.1/../../../../arm-eabi/lib\libg.a(lib_a-fwrite.o)
 .bss           0x020a3ad2        0x0 c:/devkitpro/devkitarm/bin/../lib/gcc/arm-eabi/4.1.1/../../../../arm-eabi/lib\libg.a(lib_a-impure.o)
 .bss           0x020a3ad2        0x0 c:/devkitpro/devkitarm/bin/../lib/gcc/arm-eabi/4.1.1/../../../../arm-eabi/lib\libg.a(lib_a-init.o)
 .bss           0x020a3ad2        0x0 c:/devkitpro/devkitarm/bin/../lib/gcc/arm-eabi/4.1.1/../../../../arm-eabi/lib\libg.a(lib_a-iprintf.o)
 .bss           0x020a3ad2        0x0 c:/devkitpro/devkitarm/bin/../lib/gcc/arm-eabi/4.1.1/../../../../arm-eabi/lib\libg.a(lib_a-makebuf.o)
 .bss           0x020a3ad2        0x0 c:/devkitpro/devkitarm/bin/../lib/gcc/arm-eabi/4.1.1/../../../../arm-eabi/lib\libg.a(lib_a-malloc.o)
 *fill*         0x020a3ad2        0x2 00
 .bss           0x020a3ad4       0x34 c:/devkitpro/devkitarm/bin/../lib/gcc/arm-eabi/4.1.1/../../../../arm-eabi/lib\libg.a(lib_a-mallocr.o)
                0x020a3ad4                __malloc_top_pad
                0x020a3ad8                __malloc_max_sbrked_mem
                0x020a3ae0                __malloc_current_mallinfo
                0x020a3adc                __malloc_max_total_mem
 .bss           0x020a3b08        0x0 c:/devkitpro/devkitarm/bin/../lib/gcc/arm-eabi/4.1.1/../../../../arm-eabi/lib\libg.a(lib_a-memcmp.o)
 .bss           0x020a3b08        0x0 c:/devkitpro/devkitarm/bin/../lib/gcc/arm-eabi/4.1.1/../../../../arm-eabi/lib\libg.a(lib_a-memcpy.o)
 .bss           0x020a3b08        0x0 c:/devkitpro/devkitarm/bin/../lib/gcc/arm-eabi/4.1.1/../../../../arm-eabi/lib\libg.a(lib_a-memmove.o)
 .bss           0x020a3b08        0x0 c:/devkitpro/devkitarm/bin/../lib/gcc/arm-eabi/4.1.1/../../../../arm-eabi/lib\libg.a(lib_a-memset.o)
 .bss           0x020a3b08        0x0 c:/devkitpro/devkitarm/bin/../lib/gcc/arm-eabi/4.1.1/../../../../arm-eabi/lib\libg.a(lib_a-mlock.o)
 .bss           0x020a3b08        0x0 c:/devkitpro/devkitarm/bin/../lib/gcc/arm-eabi/4.1.1/../../../../arm-eabi/lib\libg.a(lib_a-openr.o)
 .bss           0x020a3b08        0x0 c:/devkitpro/devkitarm/bin/../lib/gcc/arm-eabi/4.1.1/../../../../arm-eabi/lib\libg.a(lib_a-printf.o)
 .bss           0x020a3b08        0x0 c:/devkitpro/devkitarm/bin/../lib/gcc/arm-eabi/4.1.1/../../../../arm-eabi/lib\libg.a(lib_a-reent.o)
 .bss           0x020a3b08        0x0 c:/devkitpro/devkitarm/bin/../lib/gcc/arm-eabi/4.1.1/../../../../arm-eabi/lib\libg.a(lib_a-refill.o)
 .bss           0x020a3b08        0x0 c:/devkitpro/devkitarm/bin/../lib/gcc/arm-eabi/4.1.1/../../../../arm-eabi/lib\libg.a(lib_a-sbrkr.o)
 .bss           0x020a3b08        0x0 c:/devkitpro/devkitarm/bin/../lib/gcc/arm-eabi/4.1.1/../../../../arm-eabi/lib\libg.a(lib_a-setvbuf.o)
 .bss           0x020a3b08        0x0 c:/devkitpro/devkitarm/bin/../lib/gcc/arm-eabi/4.1.1/../../../../arm-eabi/lib\libg.a(lib_a-siprintf.o)
 .bss           0x020a3b08        0x0 c:/devkitpro/devkitarm/bin/../lib/gcc/arm-eabi/4.1.1/../../../../arm-eabi/lib\libg.a(lib_a-siscanf.o)
 .bss           0x020a3b08        0x0 c:/devkitpro/devkitarm/bin/../lib/gcc/arm-eabi/4.1.1/../../../../arm-eabi/lib\libg.a(lib_a-sprintf.o)
 .bss           0x020a3b08        0x0 c:/devkitpro/devkitarm/bin/../lib/gcc/arm-eabi/4.1.1/../../../../arm-eabi/lib\libg.a(lib_a-stdio.o)
 .bss           0x020a3b08        0x0 c:/devkitpro/devkitarm/bin/../lib/gcc/arm-eabi/4.1.1/../../../../arm-eabi/lib\libg.a(lib_a-strcasecmp.o)
 .bss           0x020a3b08        0x0 c:/devkitpro/devkitarm/bin/../lib/gcc/arm-eabi/4.1.1/../../../../arm-eabi/lib\libg.a(lib_a-strcat.o)
 .bss           0x020a3b08        0x0 c:/devkitpro/devkitarm/bin/../lib/gcc/arm-eabi/4.1.1/../../../../arm-eabi/lib\libg.a(lib_a-strchr.o)
 .bss           0x020a3b08        0x0 c:/devkitpro/devkitarm/bin/../lib/gcc/arm-eabi/4.1.1/../../../../arm-eabi/lib\libg.a(lib_a-strcpy.o)
 .bss           0x020a3b08        0x0 c:/devkitpro/devkitarm/bin/../lib/gcc/arm-eabi/4.1.1/../../../../arm-eabi/lib\libg.a(lib_a-strlcat.o)
 .bss           0x020a3b08        0x0 c:/devkitpro/devkitarm/bin/../lib/gcc/arm-eabi/4.1.1/../../../../arm-eabi/lib\libg.a(lib_a-strlcpy.o)
 .bss           0x020a3b08        0x0 c:/devkitpro/devkitarm/bin/../lib/gcc/arm-eabi/4.1.1/../../../../arm-eabi/lib\libg.a(lib_a-strlen.o)
 .bss           0x020a3b08        0x0 c:/devkitpro/devkitarm/bin/../lib/gcc/arm-eabi/4.1.1/../../../../arm-eabi/lib\libg.a(lib_a-strncasecmp.o)
 .bss           0x020a3b08        0x0 c:/devkitpro/devkitarm/bin/../lib/gcc/arm-eabi/4.1.1/../../../../arm-eabi/lib\libg.a(lib_a-strncat.o)
 .bss           0x020a3b08        0x0 c:/devkitpro/devkitarm/bin/../lib/gcc/arm-eabi/4.1.1/../../../../arm-eabi/lib\libg.a(lib_a-strncmp.o)
 .bss           0x020a3b08        0x0 c:/devkitpro/devkitarm/bin/../lib/gcc/arm-eabi/4.1.1/../../../../arm-eabi/lib\libg.a(lib_a-strncpy.o)
 .bss           0x020a3b08        0x0 c:/devkitpro/devkitarm/bin/../lib/gcc/arm-eabi/4.1.1/../../../../arm-eabi/lib\libg.a(lib_a-strnlen.o)
 .bss           0x020a3b08        0x0 c:/devkitpro/devkitarm/bin/../lib/gcc/arm-eabi/4.1.1/../../../../arm-eabi/lib\libg.a(lib_a-strpbrk.o)
 .bss           0x020a3b08        0x0 c:/devkitpro/devkitarm/bin/../lib/gcc/arm-eabi/4.1.1/../../../../arm-eabi/lib\libg.a(lib_a-strrchr.o)
 .bss           0x020a3b08        0x0 c:/devkitpro/devkitarm/bin/../lib/gcc/arm-eabi/4.1.1/../../../../arm-eabi/lib\libg.a(lib_a-strtol.o)
 .bss           0x020a3b08        0x0 c:/devkitpro/devkitarm/bin/../lib/gcc/arm-eabi/4.1.1/../../../../arm-eabi/lib\libg.a(lib_a-strupr.o)
 .bss           0x020a3b08        0x0 c:/devkitpro/devkitarm/bin/../lib/gcc/arm-eabi/4.1.1/../../../../arm-eabi/lib\libg.a(lib_a-vfiprintf.o)
 .bss           0x020a3b08        0x0 c:/devkitpro/devkitarm/bin/../lib/gcc/arm-eabi/4.1.1/../../../../arm-eabi/lib\libg.a(lib_a-vfiscanf.o)
 .bss           0x020a3b08        0x0 c:/devkitpro/devkitarm/bin/../lib/gcc/arm-eabi/4.1.1/../../../../arm-eabi/lib\libg.a(lib_a-vfprintf.o)
 .bss           0x020a3b08        0x0 c:/devkitpro/devkitarm/bin/../lib/gcc/arm-eabi/4.1.1/../../../../arm-eabi/lib\libg.a(lib_a-wcrtomb.o)
 .bss           0x020a3b08        0x0 c:/devkitpro/devkitarm/bin/../lib/gcc/arm-eabi/4.1.1/../../../../arm-eabi/lib\libg.a(lib_a-wcsrtombs.o)
 .bss           0x020a3b08        0x0 c:/devkitpro/devkitarm/bin/../lib/gcc/arm-eabi/4.1.1/../../../../arm-eabi/lib\libg.a(lib_a-wctomb_r.o)
 .bss           0x020a3b08        0x0 c:/devkitpro/devkitarm/bin/../lib/gcc/arm-eabi/4.1.1/../../../../arm-eabi/lib\libg.a(lib_a-writer.o)
 .bss           0x020a3b08        0x0 c:/devkitpro/devkitarm/bin/../lib/gcc/arm-eabi/4.1.1/../../../../arm-eabi/lib\libg.a(lib_a-wsetup.o)
 .bss           0x020a3b08        0x0 c:/devkitpro/devkitarm/bin/../lib/gcc/arm-eabi/4.1.1/../../../../arm-eabi/lib\libg.a(lib_a-closer.o)
 .bss           0x020a3b08        0x0 c:/devkitpro/devkitarm/bin/../lib/gcc/arm-eabi/4.1.1/../../../../arm-eabi/lib\libg.a(lib_a-dtoa.o)
 .bss           0x020a3b08        0x0 c:/devkitpro/devkitarm/bin/../lib/gcc/arm-eabi/4.1.1/../../../../arm-eabi/lib\libg.a(lib_a-flags.o)
 .bss           0x020a3b08        0x0 c:/devkitpro/devkitarm/bin/../lib/gcc/arm-eabi/4.1.1/../../../../arm-eabi/lib\libg.a(lib_a-fvwrite.o)
 .bss           0x020a3b08        0x0 c:/devkitpro/devkitarm/bin/../lib/gcc/arm-eabi/4.1.1/../../../../arm-eabi/lib\libg.a(lib_a-iswspace.o)
 .bss           0x020a3b08        0xc c:/devkitpro/devkitarm/bin/../lib/gcc/arm-eabi/4.1.1/../../../../arm-eabi/lib\libg.a(lib_a-locale.o)
                0x020a3b08                __nlocale_changed
                0x020a3b0c                __mlocale_changed
                0x020a3b10                _PathLocale
 .bss           0x020a3b14        0x0 c:/devkitpro/devkitarm/bin/../lib/gcc/arm-eabi/4.1.1/../../../../arm-eabi/lib\libg.a(lib_a-lseekr.o)
 .bss           0x020a3b14        0x0 c:/devkitpro/devkitarm/bin/../lib/gcc/arm-eabi/4.1.1/../../../../arm-eabi/lib\libg.a(lib_a-mbrtowc.o)
 .bss           0x020a3b14        0x0 c:/devkitpro/devkitarm/bin/../lib/gcc/arm-eabi/4.1.1/../../../../arm-eabi/lib\libg.a(lib_a-mbtowc_r.o)
 .bss           0x020a3b14        0x0 c:/devkitpro/devkitarm/bin/../lib/gcc/arm-eabi/4.1.1/../../../../arm-eabi/lib\libg.a(lib_a-memchr.o)
 .bss           0x020a3b14        0x0 c:/devkitpro/devkitarm/bin/../lib/gcc/arm-eabi/4.1.1/../../../../arm-eabi/lib\libg.a(lib_a-mprec.o)
 .bss           0x020a3b14        0x0 c:/devkitpro/devkitarm/bin/../lib/gcc/arm-eabi/4.1.1/../../../../arm-eabi/lib\libg.a(lib_a-readr.o)
 .bss           0x020a3b14        0x0 c:/devkitpro/devkitarm/bin/../lib/gcc/arm-eabi/4.1.1/../../../../arm-eabi/lib\libg.a(lib_a-reallocr.o)
 .bss           0x020a3b14        0x0 c:/devkitpro/devkitarm/bin/../lib/gcc/arm-eabi/4.1.1/../../../../arm-eabi/lib\libg.a(lib_a-s_isinfd.o)
 .bss           0x020a3b14        0x0 c:/devkitpro/devkitarm/bin/../lib/gcc/arm-eabi/4.1.1/../../../../arm-eabi/lib\libg.a(lib_a-s_isnand.o)
 .bss           0x020a3b14        0x0 c:/devkitpro/devkitarm/bin/../lib/gcc/arm-eabi/4.1.1/../../../../arm-eabi/lib\libg.a(lib_a-sccl.o)
 .bss           0x020a3b14        0x0 c:/devkitpro/devkitarm/bin/../lib/gcc/arm-eabi/4.1.1/../../../../arm-eabi/lib\libg.a(lib_a-strcmp.o)
 .bss           0x020a3b14        0x0 c:/devkitpro/devkitarm/bin/../lib/gcc/arm-eabi/4.1.1/../../../../arm-eabi/lib\libg.a(lib_a-strtoul.o)
 .bss           0x020a3b14        0x0 c:/devkitpro/devkitarm/bin/../lib/gcc/arm-eabi/4.1.1/../../../../arm-eabi/lib\libg.a(lib_a-ungetc.o)
 .bss           0x020a3b14        0x0 c:/devkitpro/devkitarm/bin/../lib/gcc/arm-eabi/4.1.1\libgcc.a(_addsubdf3.o)
 .bss           0x020a3b14        0x0 c:/devkitpro/devkitarm/bin/../lib/gcc/arm-eabi/4.1.1\libgcc.a(_muldivdf3.o)
 .bss           0x020a3b14        0x0 c:/devkitpro/devkitarm/bin/../lib/gcc/arm-eabi/4.1.1\libgcc.a(_cmpdf2.o)
 .bss           0x020a3b14        0x0 c:/devkitpro/devkitarm/bin/../lib/gcc/arm-eabi/4.1.1\libgcc.a(_fixdfsi.o)
 .bss           0x020a3b14        0x0 c:/devkitpro/devkitarm/bin/../lib/gcc/arm-eabi/4.1.1/../../../../arm-eabi/lib\libsysbase.a(iosupport.o)
 .bss           0x020a3b14        0x0 c:/devkitpro/devkitarm/bin/../lib/gcc/arm-eabi/4.1.1/../../../../arm-eabi/lib\libsysbase.a(close.o)
 .bss           0x020a3b14        0x0 c:/devkitpro/devkitarm/bin/../lib/gcc/arm-eabi/4.1.1/../../../../arm-eabi/lib\libsysbase.a(fstat.o)
 .bss           0x020a3b14        0x0 c:/devkitpro/devkitarm/bin/../lib/gcc/arm-eabi/4.1.1/../../../../arm-eabi/lib\libsysbase.a(isatty.o)
 .bss           0x020a3b14        0x0 c:/devkitpro/devkitarm/bin/../lib/gcc/arm-eabi/4.1.1/../../../../arm-eabi/lib\libsysbase.a(lseek.o)
 .bss           0x020a3b14        0x0 c:/devkitpro/devkitarm/bin/../lib/gcc/arm-eabi/4.1.1/../../../../arm-eabi/lib\libsysbase.a(open.o)
 .bss           0x020a3b14        0x0 c:/devkitpro/devkitarm/bin/../lib/gcc/arm-eabi/4.1.1/../../../../arm-eabi/lib\libsysbase.a(read.o)
 .bss           0x020a3b14        0x4 c:/devkitpro/devkitarm/bin/../lib/gcc/arm-eabi/4.1.1/../../../../arm-eabi/lib\libsysbase.a(sbrk.o)
 .bss           0x020a3b18        0x0 c:/devkitpro/devkitarm/bin/../lib/gcc/arm-eabi/4.1.1/../../../../arm-eabi/lib\libsysbase.a(write.o)
 .bss           0x020a3b18        0x8 c:/devkitpro/devkitarm/bin/../lib/gcc/arm-eabi/4.1.1/../../../../arm-eabi/lib\libsysbase.a(malloc_vars.o)
                0x020a3b1c                fake_heap_start
                0x020a3b18                fake_heap_end
 .bss           0x020a3b20        0x0 c:/devkitpro/devkitarm/bin/../lib/gcc/arm-eabi/4.1.1/../../../../arm-eabi/lib\libsysbase.a(chdir.o)
 .bss           0x020a3b20        0x0 c:/devkitpro/devkitarm/bin/../lib/gcc/arm-eabi/4.1.1/../../../../arm-eabi/lib\libsysbase.a(dir.o)
 .bss           0x020a3b20        0x0 c:/devkitpro/devkitarm/bin/../lib/gcc/arm-eabi/4.1.1/crtend.o
 .bss           0x020a3b20        0x0 c:/devkitpro/devkitarm/bin/../lib/gcc/arm-eabi/4.1.1/crtn.o
 *(COMMON)
 COMMON         0x020a3b20      0x104 file.o
                0x020a3b20                fileName
                0x020a3c20                dir
 COMMON         0x020a3c24        0x4 main.o
                0x020a3c24                romfile
 COMMON         0x020a3c28      0x2d0 Draw.o
                0x020a3c28                HighCol
 COMMON         0x020a3ef8    0x22280 Pico.o
                0x020a3ef8                PicoPad
                0x020a3f00                Pico
                0x020c6168                SRam
 COMMON         0x020c6178       0x98 Sek.o
                0x020c6178                PicoCpu
 COMMON         0x020c6210        0x4 c:/devkitpro/devkitarm/bin/../lib/gcc/arm-eabi/4.1.1/../../../../arm-eabi/lib\libg.a(lib_a-reent.o)
                0x020c6210                errno
                0x020c6214                . = ALIGN (0x4)
                0x020c6214                __bss_end = <code 342> (.)
                0x020c6214                __bss_end__ = __bss_end
                0x020c6214                _end = .
                0x020c6214                __end__ = .
                0x020c6214                PROVIDE (end, _end)

.stab
 *(.stab)

.stabstr
 *(.stabstr)

.stab.excl
 *(.stab.excl)

.stab.exclstr
 *(.stab.exclstr)

.stab.index
 *(.stab.index)

.stab.indexstr
 *(.stab.indexstr)

.comment        0x00000000     0x15c8
 *(.comment)
 .comment       0x00000000       0x29 c:/devkitpro/devkitarm/bin/../lib/gcc/arm-eabi/4.1.1/crtbegin.o
 .comment       0x00000029       0x29 file.o
 .comment       0x00000052       0x29 m3sd.o
 .comment       0x0000007b       0x29 main.o
 .comment       0x000000a4       0x29 mz80.o
 .comment       0x000000cd       0x29 sn76496.o
 .comment       0x000000f6       0x29 sound.o
 .comment       0x0000011f       0x29 ym2612.o
 .comment       0x00000148       0x29 Area.o
 .comment       0x00000171       0x29 Cart.o
 .comment       0x0000019a       0x29 Disa.o
 .comment       0x000001c3       0x29 Draw.o
 .comment       0x000001ec       0x29 Draw2.o
 .comment       0x00000215       0x29 Draw3.o
 .comment       0x0000023e       0x29 Memory.o
 .comment       0x00000267       0x29 Pico.o
 .comment       0x00000290       0x29 Sek.o
 .comment       0x000002b9       0x29 Timer.o
 .comment       0x000002e2       0x29 Utils.o
 .comment       0x0000030b       0x29 VideoPort.o
 .comment       0x00000334       0x29 C:/devkitPro/libnds/lib\libfat.a(libfat.o)
 .comment       0x0000035d       0x29 C:/devkitPro/libnds/lib\libfat.a(partition.o)
 .comment       0x00000386       0x29 C:/devkitPro/libnds/lib\libfat.a(disc.o)
 .comment       0x000003af       0x29 C:/devkitPro/libnds/lib\libfat.a(io_m3cf.o)
 .comment       0x000003d8       0x29 C:/devkitPro/libnds/lib\libfat.a(io_m3sd.o)
 .comment       0x00000401       0x29 C:/devkitPro/libnds/lib\libfat.a(io_mpcf.o)
 .comment       0x0000042a       0x29 C:/devkitPro/libnds/lib\libfat.a(io_njsd.o)
 .comment       0x00000453       0x29 C:/devkitPro/libnds/lib\libfat.a(io_nmmc.o)
 .comment       0x0000047c       0x29 C:/devkitPro/libnds/lib\libfat.a(io_sccf.o)
 .comment       0x000004a5       0x29 C:/devkitPro/libnds/lib\libfat.a(io_scsd.o)
 .comment       0x000004ce       0x29 C:/devkitPro/libnds/lib\libfat.a(io_sd_common.o)
 .comment       0x000004f7       0x29 C:/devkitPro/libnds/lib\libfat.a(cache.o)
 .comment       0x00000520       0x29 C:/devkitPro/libnds/lib\libfat.a(fatdir.o)
 .comment       0x00000549       0x29 C:/devkitPro/libnds/lib\libfat.a(fatfile.o)
 .comment       0x00000572       0x29 C:/devkitPro/libnds/lib\libfat.a(file_allocation_table.o)
 .comment       0x0000059b       0x29 C:/devkitPro/libnds/lib\libfat.a(filetime.o)
 .comment       0x000005c4       0x29 C:/devkitPro/libnds/lib\libfat.a(io_cf_common.o)
 .comment       0x000005ed       0x29 C:/devkitPro/libnds/lib\libfat.a(io_m3_common.o)
 .comment       0x00000616       0x29 C:/devkitPro/libnds/lib\libfat.a(io_sc_common.o)
 .comment       0x0000063f       0x29 C:/devkitPro/libnds/lib\libfat.a(directory.o)
 .comment       0x00000668       0x29 C:/devkitPro/libnds/lib\libnds9.a(console.o)
 .comment       0x00000691       0x29 C:/devkitPro/libnds/lib\libnds9.a(keys.o)
 .comment       0x000006ba       0x29 C:/devkitPro/libnds/lib\libnds9.a(video.o)
 .comment       0x000006e3       0x29 C:/devkitPro/libnds/lib\libnds9.a(card.o)
 .comment       0x0000070c       0x29 C:/devkitPro/libnds/lib\libnds9.a(interrupts.o)
 .comment       0x00000735       0x29 c:/devkitpro/devkitarm/bin/../lib/gcc/arm-eabi/4.1.1/../../../../arm-eabi/lib\libg.a(lib_a-calloc.o)
 .comment       0x0000075e       0x29 c:/devkitpro/devkitarm/bin/../lib/gcc/arm-eabi/4.1.1/../../../../arm-eabi/lib\libg.a(lib_a-callocr.o)
 .comment       0x00000787       0x29 c:/devkitpro/devkitarm/bin/../lib/gcc/arm-eabi/4.1.1/../../../../arm-eabi/lib\libg.a(lib_a-ctype_.o)
 .comment       0x000007b0       0x29 c:/devkitpro/devkitarm/bin/../lib/gcc/arm-eabi/4.1.1/../../../../arm-eabi/lib\libg.a(lib_a-fclose.o)
 .comment       0x000007d9       0x29 c:/devkitpro/devkitarm/bin/../lib/gcc/arm-eabi/4.1.1/../../../../arm-eabi/lib\libg.a(lib_a-fflush.o)
 .comment       0x00000802       0x29 c:/devkitpro/devkitarm/bin/../lib/gcc/arm-eabi/4.1.1/../../../../arm-eabi/lib\libg.a(lib_a-findfp.o)
 .comment       0x0000082b       0x29 c:/devkitpro/devkitarm/bin/../lib/gcc/arm-eabi/4.1.1/../../../../arm-eabi/lib\libg.a(lib_a-fopen.o)
 .comment       0x00000854       0x29 c:/devkitpro/devkitarm/bin/../lib/gcc/arm-eabi/4.1.1/../../../../arm-eabi/lib\libg.a(lib_a-fread.o)
 .comment       0x0000087d       0x29 c:/devkitpro/devkitarm/bin/../lib/gcc/arm-eabi/4.1.1/../../../../arm-eabi/lib\libg.a(lib_a-freer.o)
 .comment       0x000008a6       0x29 c:/devkitpro/devkitarm/bin/../lib/gcc/arm-eabi/4.1.1/../../../../arm-eabi/lib\libg.a(lib_a-fseek.o)
 .comment       0x000008cf       0x29 c:/devkitpro/devkitarm/bin/../lib/gcc/arm-eabi/4.1.1/../../../../arm-eabi/lib\libg.a(lib_a-fstatr.o)
 .comment       0x000008f8       0x29 c:/devkitpro/devkitarm/bin/../lib/gcc/arm-eabi/4.1.1/../../../../arm-eabi/lib\libg.a(lib_a-ftell.o)
 .comment       0x00000921       0x29 c:/devkitpro/devkitarm/bin/../lib/gcc/arm-eabi/4.1.1/../../../../arm-eabi/lib\libg.a(lib_a-fwalk.o)
 .comment       0x0000094a       0x29 c:/devkitpro/devkitarm/bin/../lib/gcc/arm-eabi/4.1.1/../../../../arm-eabi/lib\libg.a(lib_a-fwrite.o)
 .comment       0x00000973       0x29 c:/devkitpro/devkitarm/bin/../lib/gcc/arm-eabi/4.1.1/../../../../arm-eabi/lib\libg.a(lib_a-impure.o)
 .comment       0x0000099c       0x29 c:/devkitpro/devkitarm/bin/../lib/gcc/arm-eabi/4.1.1/../../../../arm-eabi/lib\libg.a(lib_a-init.o)
 .comment       0x000009c5       0x29 c:/devkitpro/devkitarm/bin/../lib/gcc/arm-eabi/4.1.1/../../../../arm-eabi/lib\libg.a(lib_a-iprintf.o)
 .comment       0x000009ee       0x29 c:/devkitpro/devkitarm/bin/../lib/gcc/arm-eabi/4.1.1/../../../../arm-eabi/lib\libg.a(lib_a-makebuf.o)
 .comment       0x00000a17       0x29 c:/devkitpro/devkitarm/bin/../lib/gcc/arm-eabi/4.1.1/../../../../arm-eabi/lib\libg.a(lib_a-malloc.o)
 .comment       0x00000a40       0x29 c:/devkitpro/devkitarm/bin/../lib/gcc/arm-eabi/4.1.1/../../../../arm-eabi/lib\libg.a(lib_a-mallocr.o)
 .comment       0x00000a69       0x29 c:/devkitpro/devkitarm/bin/../lib/gcc/arm-eabi/4.1.1/../../../../arm-eabi/lib\libg.a(lib_a-memcmp.o)
 .comment       0x00000a92       0x29 c:/devkitpro/devkitarm/bin/../lib/gcc/arm-eabi/4.1.1/../../../../arm-eabi/lib\libg.a(lib_a-memcpy.o)
 .comment       0x00000abb       0x29 c:/devkitpro/devkitarm/bin/../lib/gcc/arm-eabi/4.1.1/../../../../arm-eabi/lib\libg.a(lib_a-memmove.o)
 .comment       0x00000ae4       0x29 c:/devkitpro/devkitarm/bin/../lib/gcc/arm-eabi/4.1.1/../../../../arm-eabi/lib\libg.a(lib_a-memset.o)
 .comment       0x00000b0d       0x29 c:/devkitpro/devkitarm/bin/../lib/gcc/arm-eabi/4.1.1/../../../../arm-eabi/lib\libg.a(lib_a-mlock.o)
 .comment       0x00000b36       0x29 c:/devkitpro/devkitarm/bin/../lib/gcc/arm-eabi/4.1.1/../../../../arm-eabi/lib\libg.a(lib_a-openr.o)
 .comment       0x00000b5f       0x29 c:/devkitpro/devkitarm/bin/../lib/gcc/arm-eabi/4.1.1/../../../../arm-eabi/lib\libg.a(lib_a-printf.o)
 .comment       0x00000b88       0x29 c:/devkitpro/devkitarm/bin/../lib/gcc/arm-eabi/4.1.1/../../../../arm-eabi/lib\libg.a(lib_a-reent.o)
 .comment       0x00000bb1       0x29 c:/devkitpro/devkitarm/bin/../lib/gcc/arm-eabi/4.1.1/../../../../arm-eabi/lib\libg.a(lib_a-refill.o)
 .comment       0x00000bda       0x29 c:/devkitpro/devkitarm/bin/../lib/gcc/arm-eabi/4.1.1/../../../../arm-eabi/lib\libg.a(lib_a-sbrkr.o)
 .comment       0x00000c03       0x29 c:/devkitpro/devkitarm/bin/../lib/gcc/arm-eabi/4.1.1/../../../../arm-eabi/lib\libg.a(lib_a-setvbuf.o)
 .comment       0x00000c2c       0x29 c:/devkitpro/devkitarm/bin/../lib/gcc/arm-eabi/4.1.1/../../../../arm-eabi/lib\libg.a(lib_a-siprintf.o)
 .comment       0x00000c55       0x29 c:/devkitpro/devkitarm/bin/../lib/gcc/arm-eabi/4.1.1/../../../../arm-eabi/lib\libg.a(lib_a-siscanf.o)
 .comment       0x00000c7e       0x29 c:/devkitpro/devkitarm/bin/../lib/gcc/arm-eabi/4.1.1/../../../../arm-eabi/lib\libg.a(lib_a-sprintf.o)
 .comment       0x00000ca7       0x29 c:/devkitpro/devkitarm/bin/../lib/gcc/arm-eabi/4.1.1/../../../../arm-eabi/lib\libg.a(lib_a-stdio.o)
 .comment       0x00000cd0       0x29 c:/devkitpro/devkitarm/bin/../lib/gcc/arm-eabi/4.1.1/../../../../arm-eabi/lib\libg.a(lib_a-strcasecmp.o)
 .comment       0x00000cf9       0x29 c:/devkitpro/devkitarm/bin/../lib/gcc/arm-eabi/4.1.1/../../../../arm-eabi/lib\libg.a(lib_a-strcat.o)
 .comment       0x00000d22       0x29 c:/devkitpro/devkitarm/bin/../lib/gcc/arm-eabi/4.1.1/../../../../arm-eabi/lib\libg.a(lib_a-strchr.o)
 .comment       0x00000d4b       0x29 c:/devkitpro/devkitarm/bin/../lib/gcc/arm-eabi/4.1.1/../../../../arm-eabi/lib\libg.a(lib_a-strcpy.o)
 .comment       0x00000d74       0x29 c:/devkitpro/devkitarm/bin/../lib/gcc/arm-eabi/4.1.1/../../../../arm-eabi/lib\libg.a(lib_a-strlcat.o)
 .comment       0x00000d9d       0x29 c:/devkitpro/devkitarm/bin/../lib/gcc/arm-eabi/4.1.1/../../../../arm-eabi/lib\libg.a(lib_a-strlcpy.o)
 .comment       0x00000dc6       0x29 c:/devkitpro/devkitarm/bin/../lib/gcc/arm-eabi/4.1.1/../../../../arm-eabi/lib\libg.a(lib_a-strlen.o)
 .comment       0x00000def       0x29 c:/devkitpro/devkitarm/bin/../lib/gcc/arm-eabi/4.1.1/../../../../arm-eabi/lib\libg.a(lib_a-strncasecmp.o)
 .comment       0x00000e18       0x29 c:/devkitpro/devkitarm/bin/../lib/gcc/arm-eabi/4.1.1/../../../../arm-eabi/lib\libg.a(lib_a-strncat.o)
 .comment       0x00000e41       0x29 c:/devkitpro/devkitarm/bin/../lib/gcc/arm-eabi/4.1.1/../../../../arm-eabi/lib\libg.a(lib_a-strncmp.o)
 .comment       0x00000e6a       0x29 c:/devkitpro/devkitarm/bin/../lib/gcc/arm-eabi/4.1.1/../../../../arm-eabi/lib\libg.a(lib_a-strncpy.o)
 .comment       0x00000e93       0x29 c:/devkitpro/devkitarm/bin/../lib/gcc/arm-eabi/4.1.1/../../../../arm-eabi/lib\libg.a(lib_a-strnlen.o)
 .comment       0x00000ebc       0x29 c:/devkitpro/devkitarm/bin/../lib/gcc/arm-eabi/4.1.1/../../../../arm-eabi/lib\libg.a(lib_a-strpbrk.o)
 .comment       0x00000ee5       0x29 c:/devkitpro/devkitarm/bin/../lib/gcc/arm-eabi/4.1.1/../../../../arm-eabi/lib\libg.a(lib_a-strrchr.o)
 .comment       0x00000f0e       0x29 c:/devkitpro/devkitarm/bin/../lib/gcc/arm-eabi/4.1.1/../../../../arm-eabi/lib\libg.a(lib_a-strtol.o)
 .comment       0x00000f37       0x29 c:/devkitpro/devkitarm/bin/../lib/gcc/arm-eabi/4.1.1/../../../../arm-eabi/lib\libg.a(lib_a-strupr.o)
 .comment       0x00000f60       0x29 c:/devkitpro/devkitarm/bin/../lib/gcc/arm-eabi/4.1.1/../../../../arm-eabi/lib\libg.a(lib_a-vfiprintf.o)
 .comment       0x00000f89       0x29 c:/devkitpro/devkitarm/bin/../lib/gcc/arm-eabi/4.1.1/../../../../arm-eabi/lib\libg.a(lib_a-vfiscanf.o)
 .comment       0x00000fb2       0x29 c:/devkitpro/devkitarm/bin/../lib/gcc/arm-eabi/4.1.1/../../../../arm-eabi/lib\libg.a(lib_a-vfprintf.o)
 .comment       0x00000fdb       0x29 c:/devkitpro/devkitarm/bin/../lib/gcc/arm-eabi/4.1.1/../../../../arm-eabi/lib\libg.a(lib_a-wcrtomb.o)
 .comment       0x00001004       0x29 c:/devkitpro/devkitarm/bin/../lib/gcc/arm-eabi/4.1.1/../../../../arm-eabi/lib\libg.a(lib_a-wcsrtombs.o)
 .comment       0x0000102d       0x29 c:/devkitpro/devkitarm/bin/../lib/gcc/arm-eabi/4.1.1/../../../../arm-eabi/lib\libg.a(lib_a-wctomb_r.o)
 .comment       0x00001056       0x29 c:/devkitpro/devkitarm/bin/../lib/gcc/arm-eabi/4.1.1/../../../../arm-eabi/lib\libg.a(lib_a-writer.o)
 .comment       0x0000107f       0x29 c:/devkitpro/devkitarm/bin/../lib/gcc/arm-eabi/4.1.1/../../../../arm-eabi/lib\libg.a(lib_a-wsetup.o)
 .comment       0x000010a8       0x29 c:/devkitpro/devkitarm/bin/../lib/gcc/arm-eabi/4.1.1/../../../../arm-eabi/lib\libg.a(lib_a-closer.o)
 .comment       0x000010d1       0x29 c:/devkitpro/devkitarm/bin/../lib/gcc/arm-eabi/4.1.1/../../../../arm-eabi/lib\libg.a(lib_a-dtoa.o)
 .comment       0x000010fa       0x29 c:/devkitpro/devkitarm/bin/../lib/gcc/arm-eabi/4.1.1/../../../../arm-eabi/lib\libg.a(lib_a-flags.o)
 .comment       0x00001123       0x29 c:/devkitpro/devkitarm/bin/../lib/gcc/arm-eabi/4.1.1/../../../../arm-eabi/lib\libg.a(lib_a-fvwrite.o)
 .comment       0x0000114c       0x29 c:/devkitpro/devkitarm/bin/../lib/gcc/arm-eabi/4.1.1/../../../../arm-eabi/lib\libg.a(lib_a-iswspace.o)
 .comment       0x00001175       0x29 c:/devkitpro/devkitarm/bin/../lib/gcc/arm-eabi/4.1.1/../../../../arm-eabi/lib\libg.a(lib_a-locale.o)
 .comment       0x0000119e       0x29 c:/devkitpro/devkitarm/bin/../lib/gcc/arm-eabi/4.1.1/../../../../arm-eabi/lib\libg.a(lib_a-lseekr.o)
 .comment       0x000011c7       0x29 c:/devkitpro/devkitarm/bin/../lib/gcc/arm-eabi/4.1.1/../../../../arm-eabi/lib\libg.a(lib_a-mbrtowc.o)
 .comment       0x000011f0       0x29 c:/devkitpro/devkitarm/bin/../lib/gcc/arm-eabi/4.1.1/../../../../arm-eabi/lib\libg.a(lib_a-mbtowc_r.o)
 .comment       0x00001219       0x29 c:/devkitpro/devkitarm/bin/../lib/gcc/arm-eabi/4.1.1/../../../../arm-eabi/lib\libg.a(lib_a-memchr.o)
 .comment       0x00001242       0x29 c:/devkitpro/devkitarm/bin/../lib/gcc/arm-eabi/4.1.1/../../../../arm-eabi/lib\libg.a(lib_a-mprec.o)
 .comment       0x0000126b       0x29 c:/devkitpro/devkitarm/bin/../lib/gcc/arm-eabi/4.1.1/../../../../arm-eabi/lib\libg.a(lib_a-readr.o)
 .comment       0x00001294       0x29 c:/devkitpro/devkitarm/bin/../lib/gcc/arm-eabi/4.1.1/../../../../arm-eabi/lib\libg.a(lib_a-reallocr.o)
 .comment       0x000012bd       0x29 c:/devkitpro/devkitarm/bin/../lib/gcc/arm-eabi/4.1.1/../../../../arm-eabi/lib\libg.a(lib_a-s_isinfd.o)
 .comment       0x000012e6       0x29 c:/devkitpro/devkitarm/bin/../lib/gcc/arm-eabi/4.1.1/../../../../arm-eabi/lib\libg.a(lib_a-s_isnand.o)
 .comment       0x0000130f       0x29 c:/devkitpro/devkitarm/bin/../lib/gcc/arm-eabi/4.1.1/../../../../arm-eabi/lib\libg.a(lib_a-sccl.o)
 .comment       0x00001338       0x29 c:/devkitpro/devkitarm/bin/../lib/gcc/arm-eabi/4.1.1/../../../../arm-eabi/lib\libg.a(lib_a-strcmp.o)
 .comment       0x00001361       0x29 c:/devkitpro/devkitarm/bin/../lib/gcc/arm-eabi/4.1.1/../../../../arm-eabi/lib\libg.a(lib_a-strtoul.o)
 .comment       0x0000138a       0x29 c:/devkitpro/devkitarm/bin/../lib/gcc/arm-eabi/4.1.1/../../../../arm-eabi/lib\libg.a(lib_a-ungetc.o)
 .comment       0x000013b3       0x29 c:/devkitpro/devkitarm/bin/../lib/gcc/arm-eabi/4.1.1/../../../../arm-eabi/lib\libsysbase.a(iosupport.o)
 .comment       0x000013dc       0x29 c:/devkitpro/devkitarm/bin/../lib/gcc/arm-eabi/4.1.1/../../../../arm-eabi/lib\libsysbase.a(close.o)
 .comment       0x00001405       0x29 c:/devkitpro/devkitarm/bin/../lib/gcc/arm-eabi/4.1.1/../../../../arm-eabi/lib\libsysbase.a(fstat.o)
 .comment       0x0000142e       0x29 c:/devkitpro/devkitarm/bin/../lib/gcc/arm-eabi/4.1.1/../../../../arm-eabi/lib\libsysbase.a(isatty.o)
 .comment       0x00001457       0x29 c:/devkitpro/devkitarm/bin/../lib/gcc/arm-eabi/4.1.1/../../../../arm-eabi/lib\libsysbase.a(lseek.o)
 .comment       0x00001480       0x29 c:/devkitpro/devkitarm/bin/../lib/gcc/arm-eabi/4.1.1/../../../../arm-eabi/lib\libsysbase.a(open.o)
 .comment       0x000014a9       0x29 c:/devkitpro/devkitarm/bin/../lib/gcc/arm-eabi/4.1.1/../../../../arm-eabi/lib\libsysbase.a(read.o)
 .comment       0x000014d2       0x29 c:/devkitpro/devkitarm/bin/../lib/gcc/arm-eabi/4.1.1/../../../../arm-eabi/lib\libsysbase.a(sbrk.o)
 .comment       0x000014fb       0x29 c:/devkitpro/devkitarm/bin/../lib/gcc/arm-eabi/4.1.1/../../../../arm-eabi/lib\libsysbase.a(write.o)
 .comment       0x00001524       0x29 c:/devkitpro/devkitarm/bin/../lib/gcc/arm-eabi/4.1.1/../../../../arm-eabi/lib\libsysbase.a(malloc_vars.o)
 .comment       0x0000154d       0x29 c:/devkitpro/devkitarm/bin/../lib/gcc/arm-eabi/4.1.1/../../../../arm-eabi/lib\libsysbase.a(chdir.o)
 .comment       0x00001576       0x29 c:/devkitpro/devkitarm/bin/../lib/gcc/arm-eabi/4.1.1/../../../../arm-eabi/lib\libsysbase.a(dir.o)
 .comment       0x0000159f       0x29 c:/devkitpro/devkitarm/bin/../lib/gcc/arm-eabi/4.1.1/crtend.o

.debug
 *(.debug)

.line
 *(.line)

.debug_srcinfo
 *(.debug_srcinfo)

.debug_sfnames
 *(.debug_sfnames)

.debug_aranges  0x00000000      0x410
 *(.debug_aranges)
 .debug_aranges
                0x00000000       0x28 c:/devkitpro/devkitarm/bin/../lib/gcc/arm-eabi/4.1.1/crti.o
 .debug_aranges
                0x00000028       0x20 Cyclone.o
 .debug_aranges
                0x00000048       0x20 DrZ80.o
 .debug_aranges
                0x00000068       0x20 ym2612_helper.o
 .debug_aranges
                0x00000088       0x20 C:/devkitPro/libnds/lib\libfat.a(libfat.o)
 .debug_aranges
                0x000000a8       0x20 C:/devkitPro/libnds/lib\libfat.a(partition.o)
 .debug_aranges
                0x000000c8       0x20 C:/devkitPro/libnds/lib\libfat.a(disc.o)
 .debug_aranges
                0x000000e8       0x20 C:/devkitPro/libnds/lib\libfat.a(io_m3cf.o)
 .debug_aranges
                0x00000108       0x20 C:/devkitPro/libnds/lib\libfat.a(io_m3sd.o)
 .debug_aranges
                0x00000128       0x20 C:/devkitPro/libnds/lib\libfat.a(io_mpcf.o)
 .debug_aranges
                0x00000148       0x20 C:/devkitPro/libnds/lib\libfat.a(io_njsd.o)
 .debug_aranges
                0x00000168       0x20 C:/devkitPro/libnds/lib\libfat.a(io_nmmc.o)
 .debug_aranges
                0x00000188       0x20 C:/devkitPro/libnds/lib\libfat.a(io_sccf.o)
 .debug_aranges
                0x000001a8       0x20 C:/devkitPro/libnds/lib\libfat.a(io_scsd.o)
 .debug_aranges
                0x000001c8       0x20 C:/devkitPro/libnds/lib\libfat.a(io_sd_common.o)
 .debug_aranges
                0x000001e8       0x20 C:/devkitPro/libnds/lib\libfat.a(io_dldi.o)
 .debug_aranges
                0x00000208       0x20 C:/devkitPro/libnds/lib\libfat.a(io_scsd_s.o)
 .debug_aranges
                0x00000228       0x20 C:/devkitPro/libnds/lib\libfat.a(cache.o)
 .debug_aranges
                0x00000248       0x20 C:/devkitPro/libnds/lib\libfat.a(fatdir.o)
 .debug_aranges
                0x00000268       0x20 C:/devkitPro/libnds/lib\libfat.a(fatfile.o)
 .debug_aranges
                0x00000288       0x20 C:/devkitPro/libnds/lib\libfat.a(file_allocation_table.o)
 .debug_aranges
                0x000002a8       0x20 C:/devkitPro/libnds/lib\libfat.a(filetime.o)
 .debug_aranges
                0x000002c8       0x20 C:/devkitPro/libnds/lib\libfat.a(io_cf_common.o)
 .debug_aranges
                0x000002e8       0x20 C:/devkitPro/libnds/lib\libfat.a(io_m3_common.o)
 .debug_aranges
                0x00000308       0x20 C:/devkitPro/libnds/lib\libfat.a(io_sc_common.o)
 .debug_aranges
                0x00000328       0x20 C:/devkitPro/libnds/lib\libfat.a(directory.o)
 .debug_aranges
                0x00000348       0x20 C:/devkitPro/libnds/lib\libnds9.a(console.o)
 .debug_aranges
                0x00000368       0x20 C:/devkitPro/libnds/lib\libnds9.a(keys.o)
 .debug_aranges
                0x00000388       0x20 C:/devkitPro/libnds/lib\libnds9.a(video.o)
 .debug_aranges
                0x000003a8       0x20 C:/devkitPro/libnds/lib\libnds9.a(card.o)
 .debug_aranges
                0x000003c8       0x20 C:/devkitPro/libnds/lib\libnds9.a(interrupts.o)
 .debug_aranges
                0x000003e8       0x28 c:/devkitpro/devkitarm/bin/../lib/gcc/arm-eabi/4.1.1/crtn.o

.debug_pubnames
                0x00000000      0xfe6
 *(.debug_pubnames)
 .debug_pubnames
                0x00000000       0xb6 C:/devkitPro/libnds/lib\libfat.a(libfat.o)
 .debug_pubnames
                0x000000b6      0x129 C:/devkitPro/libnds/lib\libfat.a(partition.o)
 .debug_pubnames
                0x000001df       0x84 C:/devkitPro/libnds/lib\libfat.a(disc.o)
 .debug_pubnames
                0x00000263       0x31 C:/devkitPro/libnds/lib\libfat.a(io_m3cf.o)
 .debug_pubnames
                0x00000294       0xd7 C:/devkitPro/libnds/lib\libfat.a(io_m3sd.o)
 .debug_pubnames
                0x0000036b       0x31 C:/devkitPro/libnds/lib\libfat.a(io_mpcf.o)
 .debug_pubnames
                0x0000039c       0xd7 C:/devkitPro/libnds/lib\libfat.a(io_njsd.o)
 .debug_pubnames
                0x00000473       0xc5 C:/devkitPro/libnds/lib\libfat.a(io_nmmc.o)
 .debug_pubnames
                0x00000538       0x31 C:/devkitPro/libnds/lib\libfat.a(io_sccf.o)
 .debug_pubnames
                0x00000569       0xd7 C:/devkitPro/libnds/lib\libfat.a(io_scsd.o)
 .debug_pubnames
                0x00000640       0x3e C:/devkitPro/libnds/lib\libfat.a(io_sd_common.o)
 .debug_pubnames
                0x0000067e       0xe0 C:/devkitPro/libnds/lib\libfat.a(cache.o)
 .debug_pubnames
                0x0000075e       0xc6 C:/devkitPro/libnds/lib\libfat.a(fatdir.o)
 .debug_pubnames
                0x00000824       0x75 C:/devkitPro/libnds/lib\libfat.a(fatfile.o)
 .debug_pubnames
                0x00000899       0x9d C:/devkitPro/libnds/lib\libfat.a(file_allocation_table.o)
 .debug_pubnames
                0x00000936       0x70 C:/devkitPro/libnds/lib\libfat.a(filetime.o)
 .debug_pubnames
                0x000009a6       0x93 C:/devkitPro/libnds/lib\libfat.a(io_cf_common.o)
 .debug_pubnames
                0x00000a39       0x25 C:/devkitPro/libnds/lib\libfat.a(io_m3_common.o)
 .debug_pubnames
                0x00000a5e       0x25 C:/devkitPro/libnds/lib\libfat.a(io_sc_common.o)
 .debug_pubnames
                0x00000a83      0x1a0 C:/devkitPro/libnds/lib\libfat.a(directory.o)
 .debug_pubnames
                0x00000c23       0x9f C:/devkitPro/libnds/lib\libnds9.a(console.o)
 .debug_pubnames
                0x00000cc2       0x69 C:/devkitPro/libnds/lib\libnds9.a(keys.o)
 .debug_pubnames
                0x00000d2b       0xf1 C:/devkitPro/libnds/lib\libnds9.a(video.o)
 .debug_pubnames
                0x00000e1c      0x14a C:/devkitPro/libnds/lib\libnds9.a(card.o)
 .debug_pubnames
                0x00000f66       0x80 C:/devkitPro/libnds/lib\libnds9.a(interrupts.o)

.debug_info     0x00000000     0xca5d
 *(.debug_info)
 .debug_info    0x00000000       0x5b c:/devkitpro/devkitarm/bin/../lib/gcc/arm-eabi/4.1.1/crti.o
 .debug_info    0x0000005b       0xa5 Cyclone.o
 .debug_info    0x00000100       0xa6 DrZ80.o
 .debug_info    0x000001a6       0xae ym2612_helper.o
 .debug_info    0x00000254     0x106e C:/devkitPro/libnds/lib\libfat.a(libfat.o)
 .debug_info    0x000012c2      0x8bb C:/devkitPro/libnds/lib\libfat.a(partition.o)
 .debug_info    0x00001b7d      0x3a4 C:/devkitPro/libnds/lib\libfat.a(disc.o)
 .debug_info    0x00001f21      0x2a0 C:/devkitPro/libnds/lib\libfat.a(io_m3cf.o)
 .debug_info    0x000021c1      0x824 C:/devkitPro/libnds/lib\libfat.a(io_m3sd.o)
 .debug_info    0x000029e5      0x2a0 C:/devkitPro/libnds/lib\libfat.a(io_mpcf.o)
 .debug_info    0x00002c85      0x9d3 C:/devkitPro/libnds/lib\libfat.a(io_njsd.o)
 .debug_info    0x00003658      0xac9 C:/devkitPro/libnds/lib\libfat.a(io_nmmc.o)
 .debug_info    0x00004121      0x2a0 C:/devkitPro/libnds/lib\libfat.a(io_sccf.o)
 .debug_info    0x000043c1      0x6c4 C:/devkitPro/libnds/lib\libfat.a(io_scsd.o)
 .debug_info    0x00004a85      0x299 C:/devkitPro/libnds/lib\libfat.a(io_sd_common.o)
 .debug_info    0x00004d1e       0x8c C:/devkitPro/libnds/lib\libfat.a(io_dldi.o)
 .debug_info    0x00004daa       0x8e C:/devkitPro/libnds/lib\libfat.a(io_scsd_s.o)
 .debug_info    0x00004e38      0x767 C:/devkitPro/libnds/lib\libfat.a(cache.o)
 .debug_info    0x0000559f     0x154e C:/devkitPro/libnds/lib\libfat.a(fatdir.o)
 .debug_info    0x00006aed     0x19bd C:/devkitPro/libnds/lib\libfat.a(fatfile.o)
 .debug_info    0x000084aa      0x6f1 C:/devkitPro/libnds/lib\libfat.a(file_allocation_table.o)
 .debug_info    0x00008b9b      0x1a5 C:/devkitPro/libnds/lib\libfat.a(filetime.o)
 .debug_info    0x00008d40      0x31a C:/devkitPro/libnds/lib\libfat.a(io_cf_common.o)
 .debug_info    0x0000905a       0xd8 C:/devkitPro/libnds/lib\libfat.a(io_m3_common.o)
 .debug_info    0x00009132       0xb8 C:/devkitPro/libnds/lib\libfat.a(io_sc_common.o)
 .debug_info    0x000091ea     0x113d C:/devkitPro/libnds/lib\libfat.a(directory.o)
 .debug_info    0x0000a327     0x1228 C:/devkitPro/libnds/lib\libnds9.a(console.o)
 .debug_info    0x0000b54f      0x4ea C:/devkitPro/libnds/lib\libnds9.a(keys.o)
 .debug_info    0x0000ba39      0x579 C:/devkitPro/libnds/lib\libnds9.a(video.o)
 .debug_info    0x0000bfb2      0x805 C:/devkitPro/libnds/lib\libnds9.a(card.o)
 .debug_info    0x0000c7b7      0x24b C:/devkitPro/libnds/lib\libnds9.a(interrupts.o)
 .debug_info    0x0000ca02       0x5b c:/devkitpro/devkitarm/bin/../lib/gcc/arm-eabi/4.1.1/crtn.o

.debug_abbrev   0x00000000     0x2db9
 *(.debug_abbrev)
 .debug_abbrev  0x00000000       0x10 c:/devkitpro/devkitarm/bin/../lib/gcc/arm-eabi/4.1.1/crti.o
 .debug_abbrev  0x00000010       0x14 Cyclone.o
 .debug_abbrev  0x00000024       0x14 DrZ80.o
 .debug_abbrev  0x00000038       0x14 ym2612_helper.o
 .debug_abbrev  0x0000004c      0x1d4 C:/devkitPro/libnds/lib\libfat.a(libfat.o)
 .debug_abbrev  0x00000220      0x264 C:/devkitPro/libnds/lib\libfat.a(partition.o)
 .debug_abbrev  0x00000484      0x15e C:/devkitPro/libnds/lib\libfat.a(disc.o)
 .debug_abbrev  0x000005e2       0xfa C:/devkitPro/libnds/lib\libfat.a(io_m3cf.o)
 .debug_abbrev  0x000006dc      0x2f5 C:/devkitPro/libnds/lib\libfat.a(io_m3sd.o)
 .debug_abbrev  0x000009d1       0xfa C:/devkitPro/libnds/lib\libfat.a(io_mpcf.o)
 .debug_abbrev  0x00000acb      0x2d0 C:/devkitPro/libnds/lib\libfat.a(io_njsd.o)
 .debug_abbrev  0x00000d9b      0x2b0 C:/devkitPro/libnds/lib\libfat.a(io_nmmc.o)
 .debug_abbrev  0x0000104b       0xfa C:/devkitPro/libnds/lib\libfat.a(io_sccf.o)
 .debug_abbrev  0x00001145      0x270 C:/devkitPro/libnds/lib\libfat.a(io_scsd.o)
 .debug_abbrev  0x000013b5      0x10f C:/devkitPro/libnds/lib\libfat.a(io_sd_common.o)
 .debug_abbrev  0x000014c4       0x14 C:/devkitPro/libnds/lib\libfat.a(io_dldi.o)
 .debug_abbrev  0x000014d8       0x14 C:/devkitPro/libnds/lib\libfat.a(io_scsd_s.o)
 .debug_abbrev  0x000014ec      0x1ca C:/devkitPro/libnds/lib\libfat.a(cache.o)
 .debug_abbrev  0x000016b6      0x303 C:/devkitPro/libnds/lib\libfat.a(fatdir.o)
 .debug_abbrev  0x000019b9      0x348 C:/devkitPro/libnds/lib\libfat.a(fatfile.o)
 .debug_abbrev  0x00001d01      0x1cc C:/devkitPro/libnds/lib\libfat.a(file_allocation_table.o)
 .debug_abbrev  0x00001ecd       0xac C:/devkitPro/libnds/lib\libfat.a(filetime.o)
 .debug_abbrev  0x00001f79      0x15b C:/devkitPro/libnds/lib\libfat.a(io_cf_common.o)
 .debug_abbrev  0x000020d4       0x72 C:/devkitPro/libnds/lib\libfat.a(io_m3_common.o)
 .debug_abbrev  0x00002146       0x7a C:/devkitPro/libnds/lib\libfat.a(io_sc_common.o)
 .debug_abbrev  0x000021c0      0x323 C:/devkitPro/libnds/lib\libfat.a(directory.o)
 .debug_abbrev  0x000024e3      0x34c C:/devkitPro/libnds/lib\libnds9.a(console.o)
 .debug_abbrev  0x0000282f      0x173 C:/devkitPro/libnds/lib\libnds9.a(keys.o)
 .debug_abbrev  0x000029a2       0xbf C:/devkitPro/libnds/lib\libnds9.a(video.o)
 .debug_abbrev  0x00002a61      0x213 C:/devkitPro/libnds/lib\libnds9.a(card.o)
 .debug_abbrev  0x00002c74      0x135 C:/devkitPro/libnds/lib\libnds9.a(interrupts.o)
 .debug_abbrev  0x00002da9       0x10 c:/devkitpro/devkitarm/bin/../lib/gcc/arm-eabi/4.1.1/crtn.o

.debug_line     0x00000000    0x11509
 *(.debug_line)
 .debug_line    0x00000000       0x49 c:/devkitpro/devkitarm/bin/../lib/gcc/arm-eabi/4.1.1/crti.o
 .debug_line    0x00000049     0xbf18 Cyclone.o
 .debug_line    0x0000bf61     0x1c9a DrZ80.o
 .debug_line    0x0000dbfb       0xc7 ym2612_helper.o
 .debug_line    0x0000dcc2      0x261 C:/devkitPro/libnds/lib\libfat.a(libfat.o)
 .debug_line    0x0000df23      0x2e7 C:/devkitPro/libnds/lib\libfat.a(partition.o)
 .debug_line    0x0000e20a      0x154 C:/devkitPro/libnds/lib\libfat.a(disc.o)
 .debug_line    0x0000e35e       0xc0 C:/devkitPro/libnds/lib\libfat.a(io_m3cf.o)
 .debug_line    0x0000e41e      0x200 C:/devkitPro/libnds/lib\libfat.a(io_m3sd.o)
 .debug_line    0x0000e61e       0xbf C:/devkitPro/libnds/lib\libfat.a(io_mpcf.o)
 .debug_line    0x0000e6dd      0x324 C:/devkitPro/libnds/lib\libfat.a(io_njsd.o)
 .debug_line    0x0000ea01      0x2d8 C:/devkitPro/libnds/lib\libfat.a(io_nmmc.o)
 .debug_line    0x0000ecd9       0xc0 C:/devkitPro/libnds/lib\libfat.a(io_sccf.o)
 .debug_line    0x0000ed99      0x1b7 C:/devkitPro/libnds/lib\libfat.a(io_scsd.o)
 .debug_line    0x0000ef50      0x11f C:/devkitPro/libnds/lib\libfat.a(io_sd_common.o)
 .debug_line    0x0000f06f       0x6e C:/devkitPro/libnds/lib\libfat.a(io_dldi.o)
 .debug_line    0x0000f0dd       0x9b C:/devkitPro/libnds/lib\libfat.a(io_scsd_s.o)
 .debug_line    0x0000f178      0x22f C:/devkitPro/libnds/lib\libfat.a(cache.o)
 .debug_line    0x0000f3a7      0x40d C:/devkitPro/libnds/lib\libfat.a(fatdir.o)
 .debug_line    0x0000f7b4      0x658 C:/devkitPro/libnds/lib\libfat.a(fatfile.o)
 .debug_line    0x0000fe0c      0x1ee C:/devkitPro/libnds/lib\libfat.a(file_allocation_table.o)
 .debug_line    0x0000fffa      0x114 C:/devkitPro/libnds/lib\libfat.a(filetime.o)
 .debug_line    0x0001010e      0x180 C:/devkitPro/libnds/lib\libfat.a(io_cf_common.o)
 .debug_line    0x0001028e       0xb6 C:/devkitPro/libnds/lib\libfat.a(io_m3_common.o)
 .debug_line    0x00010344       0xa7 C:/devkitPro/libnds/lib\libfat.a(io_sc_common.o)
 .debug_line    0x000103eb      0x653 C:/devkitPro/libnds/lib\libfat.a(directory.o)
 .debug_line    0x00010a3e      0x3a2 C:/devkitPro/libnds/lib\libnds9.a(console.o)
 .debug_line    0x00010de0      0x12b C:/devkitPro/libnds/lib\libnds9.a(keys.o)
 .debug_line    0x00010f0b      0x15e C:/devkitPro/libnds/lib\libnds9.a(video.o)
 .debug_line    0x00011069      0x2fa C:/devkitPro/libnds/lib\libnds9.a(card.o)
 .debug_line    0x00011363      0x15d C:/devkitPro/libnds/lib\libnds9.a(interrupts.o)
 .debug_line    0x000114c0       0x49 c:/devkitpro/devkitarm/bin/../lib/gcc/arm-eabi/4.1.1/crtn.o

.debug_frame    0x00000000     0x1590
 *(.debug_frame)
 .debug_frame   0x00000000       0xbc C:/devkitPro/libnds/lib\libfat.a(libfat.o)
 .debug_frame   0x000000bc      0x10c C:/devkitPro/libnds/lib\libfat.a(partition.o)
 .debug_frame   0x000001c8       0x64 C:/devkitPro/libnds/lib\libfat.a(disc.o)
 .debug_frame   0x0000022c       0x28 C:/devkitPro/libnds/lib\libfat.a(io_m3cf.o)
 .debug_frame   0x00000254      0x1b0 C:/devkitPro/libnds/lib\libfat.a(io_m3sd.o)
 .debug_frame   0x00000404       0x28 C:/devkitPro/libnds/lib\libfat.a(io_mpcf.o)
 .debug_frame   0x0000042c      0x178 C:/devkitPro/libnds/lib\libfat.a(io_njsd.o)
 .debug_frame   0x000005a4      0x138 C:/devkitPro/libnds/lib\libfat.a(io_nmmc.o)
 .debug_frame   0x000006dc       0x28 C:/devkitPro/libnds/lib\libfat.a(io_sccf.o)
 .debug_frame   0x00000704      0x174 C:/devkitPro/libnds/lib\libfat.a(io_scsd.o)
 .debug_frame   0x00000878       0x88 C:/devkitPro/libnds/lib\libfat.a(io_sd_common.o)
 .debug_frame   0x00000900      0x110 C:/devkitPro/libnds/lib\libfat.a(cache.o)
 .debug_frame   0x00000a10      0x154 C:/devkitPro/libnds/lib\libfat.a(fatdir.o)
 .debug_frame   0x00000b64      0x104 C:/devkitPro/libnds/lib\libfat.a(fatfile.o)
 .debug_frame   0x00000c68       0xe8 C:/devkitPro/libnds/lib\libfat.a(file_allocation_table.o)
 .debug_frame   0x00000d50       0x5c C:/devkitPro/libnds/lib\libfat.a(filetime.o)
 .debug_frame   0x00000dac       0xbc C:/devkitPro/libnds/lib\libfat.a(io_cf_common.o)
 .debug_frame   0x00000e68       0x38 C:/devkitPro/libnds/lib\libfat.a(io_m3_common.o)
 .debug_frame   0x00000ea0       0x20 C:/devkitPro/libnds/lib\libfat.a(io_sc_common.o)
 .debug_frame   0x00000ec0      0x208 C:/devkitPro/libnds/lib\libfat.a(directory.o)
 .debug_frame   0x000010c8      0x108 C:/devkitPro/libnds/lib\libnds9.a(console.o)
 .debug_frame   0x000011d0       0x80 C:/devkitPro/libnds/lib\libnds9.a(keys.o)
 .debug_frame   0x00001250       0xdc C:/devkitPro/libnds/lib\libnds9.a(video.o)
 .debug_frame   0x0000132c      0x1b4 C:/devkitPro/libnds/lib\libnds9.a(card.o)
 .debug_frame   0x000014e0       0xb0 C:/devkitPro/libnds/lib\libnds9.a(interrupts.o)

.debug_str      0x00000000     0x30c7
 *(.debug_str)
 .debug_str     0x00000000      0x75b C:/devkitPro/libnds/lib\libfat.a(libfat.o)
                                0x859 (size before relaxing)
 .debug_str     0x0000075b      0x375 C:/devkitPro/libnds/lib\libfat.a(partition.o)
                                0x5e4 (size before relaxing)
 .debug_str     0x00000ad0      0x134 C:/devkitPro/libnds/lib\libfat.a(disc.o)
                                0x323 (size before relaxing)
 .debug_str     0x00000c04       0x95 C:/devkitPro/libnds/lib\libfat.a(io_m3cf.o)
                                0x290 (size before relaxing)
 .debug_str     0x00000c99      0x24d C:/devkitPro/libnds/lib\libfat.a(io_m3sd.o)
                                0x46d (size before relaxing)
 .debug_str     0x00000ee6       0x5b C:/devkitPro/libnds/lib\libfat.a(io_mpcf.o)
                                0x290 (size before relaxing)
 .debug_str     0x00000f41      0x200 C:/devkitPro/libnds/lib\libfat.a(io_njsd.o)
                                0x454 (size before relaxing)
 .debug_str     0x00001141      0x1b8 C:/devkitPro/libnds/lib\libfat.a(io_nmmc.o)
                                0x3d7 (size before relaxing)
 .debug_str     0x000012f9       0x5b C:/devkitPro/libnds/lib\libfat.a(io_sccf.o)
                                0x290 (size before relaxing)
 .debug_str     0x00001354      0x1b0 C:/devkitPro/libnds/lib\libfat.a(io_scsd.o)
                                0x414 (size before relaxing)
 .debug_str     0x00001504       0xcb C:/devkitPro/libnds/lib\libfat.a(io_sd_common.o)
                                0x203 (size before relaxing)
 .debug_str     0x000015cf      0x13a C:/devkitPro/libnds/lib\libfat.a(cache.o)
                                0x3d9 (size before relaxing)
 .debug_str     0x00001709      0x24a C:/devkitPro/libnds/lib\libfat.a(fatdir.o)
                                0xa3b (size before relaxing)
 .debug_str     0x00001953      0x19e C:/devkitPro/libnds/lib\libfat.a(fatfile.o)
                                0xaa7 (size before relaxing)
 .debug_str     0x00001af1      0x109 C:/devkitPro/libnds/lib\libfat.a(file_allocation_table.o)
                                0x4be (size before relaxing)
 .debug_str     0x00001bfa       0x9c C:/devkitPro/libnds/lib\libfat.a(filetime.o)
                                0x1a0 (size before relaxing)
 .debug_str     0x00001c96       0xb4 C:/devkitPro/libnds/lib\libfat.a(io_cf_common.o)
                                0x20a (size before relaxing)
 .debug_str     0x00001d4a       0x67 C:/devkitPro/libnds/lib\libfat.a(io_m3_common.o)
                                0x140 (size before relaxing)
 .debug_str     0x00001db1       0x5f C:/devkitPro/libnds/lib\libfat.a(io_sc_common.o)
                                0x138 (size before relaxing)
 .debug_str     0x00001e10      0x369 C:/devkitPro/libnds/lib\libfat.a(directory.o)
                                0x8a5 (size before relaxing)
 .debug_str     0x00002179      0x1f3 C:/devkitPro/libnds/lib\libnds9.a(console.o)
                                0x7f8 (size before relaxing)
 .debug_str     0x0000236c      0x1be C:/devkitPro/libnds/lib\libnds9.a(keys.o)
                                0x312 (size before relaxing)
 .debug_str     0x0000252a      0x932 C:/devkitPro/libnds/lib\libnds9.a(video.o)
                                0xa1e (size before relaxing)
 .debug_str     0x00002e5c      0x1ad C:/devkitPro/libnds/lib\libnds9.a(card.o)
                                0x30e (size before relaxing)
 .debug_str     0x00003009       0xbe C:/devkitPro/libnds/lib\libnds9.a(interrupts.o)
                                0x1b4 (size before relaxing)

.debug_loc      0x00000000     0x6fd1
 *(.debug_loc)
 .debug_loc     0x00000000      0x216 C:/devkitPro/libnds/lib\libfat.a(libfat.o)
 .debug_loc     0x00000216      0x42f C:/devkitPro/libnds/lib\libfat.a(partition.o)
 .debug_loc     0x00000645       0xca C:/devkitPro/libnds/lib\libfat.a(disc.o)
 .debug_loc     0x0000070f       0x2b C:/devkitPro/libnds/lib\libfat.a(io_m3cf.o)
 .debug_loc     0x0000073a      0x6cf C:/devkitPro/libnds/lib\libfat.a(io_m3sd.o)
 .debug_loc     0x00000e09       0x2b C:/devkitPro/libnds/lib\libfat.a(io_mpcf.o)
 .debug_loc     0x00000e34      0x866 C:/devkitPro/libnds/lib\libfat.a(io_njsd.o)
 .debug_loc     0x0000169a      0x4d6 C:/devkitPro/libnds/lib\libfat.a(io_nmmc.o)
 .debug_loc     0x00001b70       0x2b C:/devkitPro/libnds/lib\libfat.a(io_sccf.o)
 .debug_loc     0x00001b9b      0x619 C:/devkitPro/libnds/lib\libfat.a(io_scsd.o)
 .debug_loc     0x000021b4      0x2e8 C:/devkitPro/libnds/lib\libfat.a(io_sd_common.o)
 .debug_loc     0x0000249c      0x71c C:/devkitPro/libnds/lib\libfat.a(cache.o)
 .debug_loc     0x00002bb8      0x9a3 C:/devkitPro/libnds/lib\libfat.a(fatdir.o)
 .debug_loc     0x0000355b      0xe64 C:/devkitPro/libnds/lib\libfat.a(fatfile.o)
 .debug_loc     0x000043bf      0x630 C:/devkitPro/libnds/lib\libfat.a(file_allocation_table.o)
 .debug_loc     0x000049ef       0xac C:/devkitPro/libnds/lib\libfat.a(filetime.o)
 .debug_loc     0x00004a9b      0x421 C:/devkitPro/libnds/lib\libfat.a(io_cf_common.o)
 .debug_loc     0x00004ebc       0x50 C:/devkitPro/libnds/lib\libfat.a(io_m3_common.o)
 .debug_loc     0x00004f0c      0xf1c C:/devkitPro/libnds/lib\libfat.a(directory.o)
 .debug_loc     0x00005e28      0x762 C:/devkitPro/libnds/lib\libnds9.a(console.o)
 .debug_loc     0x0000658a       0x3e C:/devkitPro/libnds/lib\libnds9.a(keys.o)
 .debug_loc     0x000065c8      0x129 C:/devkitPro/libnds/lib\libnds9.a(video.o)
 .debug_loc     0x000066f1      0x7ab C:/devkitPro/libnds/lib\libnds9.a(card.o)
 .debug_loc     0x00006e9c      0x135 C:/devkitPro/libnds/lib\libnds9.a(interrupts.o)

.debug_macinfo
 *(.debug_macinfo)

.debug_weaknames
 *(.debug_weaknames)

.debug_funcnames
 *(.debug_funcnames)

.debug_typenames
 *(.debug_typenames)

.debug_varnames
 *(.debug_varnames)

.stack          0x00080000        0x0
                0x00080000                _stack = .
 *(.stack)
LOAD c:/devkitpro/devkitarm/bin/../lib/gcc/arm-eabi/4.1.1/../../../../arm-eabi/lib/ds_arm9_crt0.o
LOAD c:/devkitpro/devkitarm/bin/../lib/gcc/arm-eabi/4.1.1/crti.o
LOAD c:/devkitpro/devkitarm/bin/../lib/gcc/arm-eabi/4.1.1/crtbegin.o
LOAD file.o
LOAD m3sd.o
LOAD main.o
LOAD mz80.o
LOAD sn76496.o
LOAD sound.o
LOAD ym2612.o
LOAD Area.o
LOAD Cart.o
LOAD Disa.o
LOAD Draw.o
LOAD Draw2.o
LOAD Draw3.o
LOAD Memory.o
LOAD Pico.o
LOAD Sek.o
LOAD Timer.o
LOAD Utils.o
LOAD VideoPort.o
LOAD Cyclone.o
LOAD DrZ80.o
LOAD ym2612_helper.o
LOAD Draw2_asm.o
LOAD C:/devkitPro/libnds/lib\libfat.a
LOAD C:/devkitPro/libnds/lib\libnds9.a
LOAD c:/devkitpro/devkitarm/bin/../lib/gcc/arm-eabi/4.1.1/../../../../arm-eabi/lib\libm.a
START GROUP
LOAD c:/devkitpro/devkitarm/bin/../lib/gcc/arm-eabi/4.1.1\libgcc.a
LOAD c:/devkitpro/devkitarm/bin/../lib/gcc/arm-eabi/4.1.1/../../../../arm-eabi/lib\libg.a
LOAD c:/devkitpro/devkitarm/bin/../lib/gcc/arm-eabi/4.1.1/../../../../arm-eabi/lib\libc.a
END GROUP
START GROUP
LOAD c:/devkitpro/devkitarm/bin/../lib/gcc/arm-eabi/4.1.1/../../../../arm-eabi/lib\libsysbase.a
LOAD c:/devkitpro/devkitarm/bin/../lib/gcc/arm-eabi/4.1.1/../../../../arm-eabi/lib\libc.a
END GROUP
LOAD c:/devkitpro/devkitarm/bin/../lib/gcc/arm-eabi/4.1.1/crtend.o
LOAD c:/devkitpro/devkitarm/bin/../lib/gcc/arm-eabi/4.1.1/crtn.o
OUTPUT(C:/Users/GRX/picodriveds-0.1.7/PicodriveDS/arm9/PicodriveGBMacro.arm9.elf elf32-littlearm)

.ARM.attributes
                0x00000000       0x10
 .ARM.attributes
                0x00000000       0x1e c:/devkitpro/devkitarm/bin/../lib/gcc/arm-eabi/4.1.1/../../../../arm-eabi/lib/ds_arm9_crt0.o
 .ARM.attributes
                0x0000001e       0x1e c:/devkitpro/devkitarm/bin/../lib/gcc/arm-eabi/4.1.1/crti.o
 .ARM.attributes
                0x0000003c       0x1e c:/devkitpro/devkitarm/bin/../lib/gcc/arm-eabi/4.1.1/crtbegin.o
 .ARM.attributes
                0x0000005a       0x1e file.o
 .ARM.attributes
                0x00000078       0x1e m3sd.o
 .ARM.attributes
                0x00000096       0x1e main.o
 .ARM.attributes
                0x000000b4       0x1c mz80.o
 .ARM.attributes
                0x000000d0       0x1c sn76496.o
 .ARM.attributes
                0x000000ec       0x1c sound.o
 .ARM.attributes
                0x00000108       0x1c ym2612.o
 .ARM.attributes
                0x00000124       0x1e Area.o
 .ARM.attributes
                0x00000142       0x1e Cart.o
 .ARM.attributes
                0x00000160       0x1e Disa.o
 .ARM.attributes
                0x0000017e       0x1e Draw.o
 .ARM.attributes
                0x0000019c       0x1c Draw2.o
 .ARM.attributes
                0x000001b8       0x1c Draw3.o
 .ARM.attributes
                0x000001d4       0x1e Memory.o
 .ARM.attributes
                0x000001f2       0x1e Pico.o
 .ARM.attributes
                0x00000210       0x1e Sek.o
 .ARM.attributes
                0x0000022e       0x1e Timer.o
 .ARM.attributes
                0x0000024c       0x1e Utils.o
 .ARM.attributes
                0x0000026a       0x1e VideoPort.o
 .ARM.attributes
                0x00000288       0x1e Cyclone.o
 .ARM.attributes
                0x000002a6       0x1e DrZ80.o
 .ARM.attributes
                0x000002c4       0x1e ym2612_helper.o
 .ARM.attributes
                0x000002e2       0x1c Draw2_asm.o
 .ARM.attributes
                0x000002fe       0x19 C:/devkitPro/libnds/lib\libfat.a(libfat.o)
 .ARM.attributes
                0x00000317       0x19 C:/devkitPro/libnds/lib\libfat.a(partition.o)
 .ARM.attributes
                0x00000330       0x19 C:/devkitPro/libnds/lib\libfat.a(disc.o)
 .ARM.attributes
                0x00000349       0x19 C:/devkitPro/libnds/lib\libfat.a(io_m3cf.o)
 .ARM.attributes
                0x00000362       0x19 C:/devkitPro/libnds/lib\libfat.a(io_m3sd.o)
 .ARM.attributes
                0x0000037b       0x19 C:/devkitPro/libnds/lib\libfat.a(io_mpcf.o)
 .ARM.attributes
                0x00000394       0x19 C:/devkitPro/libnds/lib\libfat.a(io_njsd.o)
 .ARM.attributes
                0x000003ad       0x19 C:/devkitPro/libnds/lib\libfat.a(io_nmmc.o)
 .ARM.attributes
                0x000003c6       0x19 C:/devkitPro/libnds/lib\libfat.a(io_sccf.o)
 .ARM.attributes
                0x000003df       0x19 C:/devkitPro/libnds/lib\libfat.a(io_scsd.o)
 .ARM.attributes
                0x000003f8       0x19 C:/devkitPro/libnds/lib\libfat.a(io_sd_common.o)
 .ARM.attributes
                0x00000411       0x1e C:/devkitPro/libnds/lib\libfat.a(io_dldi.o)
 .ARM.attributes
                0x0000042f       0x1e C:/devkitPro/libnds/lib\libfat.a(io_scsd_s.o)
 .ARM.attributes
                0x0000044d       0x19 C:/devkitPro/libnds/lib\libfat.a(cache.o)
 .ARM.attributes
                0x00000466       0x19 C:/devkitPro/libnds/lib\libfat.a(fatdir.o)
 .ARM.attributes
                0x0000047f       0x19 C:/devkitPro/libnds/lib\libfat.a(fatfile.o)
 .ARM.attributes
                0x00000498       0x19 C:/devkitPro/libnds/lib\libfat.a(file_allocation_table.o)
 .ARM.attributes
                0x000004b1       0x19 C:/devkitPro/libnds/lib\libfat.a(filetime.o)
 .ARM.attributes
                0x000004ca       0x19 C:/devkitPro/libnds/lib\libfat.a(io_cf_common.o)
 .ARM.attributes
                0x000004e3       0x19 C:/devkitPro/libnds/lib\libfat.a(io_m3_common.o)
 .ARM.attributes
                0x000004fc       0x19 C:/devkitPro/libnds/lib\libfat.a(io_sc_common.o)
 .ARM.attributes
                0x00000515       0x19 C:/devkitPro/libnds/lib\libfat.a(directory.o)
 .ARM.attributes
                0x0000052e       0x10 C:/devkitPro/libnds/lib\libnds9.a(COS.o)
 .ARM.attributes
                0x0000053e       0x19 C:/devkitPro/libnds/lib\libnds9.a(console.o)
 .ARM.attributes
                0x00000557       0x19 C:/devkitPro/libnds/lib\libnds9.a(keys.o)
 .ARM.attributes
                0x00000570       0x19 C:/devkitPro/libnds/lib\libnds9.a(video.o)
 .ARM.attributes
                0x00000589       0x19 C:/devkitPro/libnds/lib\libnds9.a(card.o)
 .ARM.attributes
                0x000005a2       0x19 C:/devkitPro/libnds/lib\libnds9.a(interrupts.o)
 .ARM.attributes
                0x000005bb       0x19 C:/devkitPro/libnds/lib\libnds9.a(biosCalls.o)
 .ARM.attributes
                0x000005d4       0x19 C:/devkitPro/libnds/lib\libnds9.a(interruptDispatcher.o)
 .ARM.attributes
                0x000005ed       0x10 C:/devkitPro/libnds/lib\libnds9.a(default_font.o)
 .ARM.attributes
                0x000005fd       0x1e c:/devkitpro/devkitarm/bin/../lib/gcc/arm-eabi/4.1.1\libgcc.a(_udivsi3.o)
 .ARM.attributes
                0x0000061b       0x1e c:/devkitpro/devkitarm/bin/../lib/gcc/arm-eabi/4.1.1\libgcc.a(_divsi3.o)
 .ARM.attributes
                0x00000639       0x1e c:/devkitpro/devkitarm/bin/../lib/gcc/arm-eabi/4.1.1\libgcc.a(_dvmd_tls.o)
 .ARM.attributes
                0x00000657       0x1e c:/devkitpro/devkitarm/bin/../lib/gcc/arm-eabi/4.1.1\libgcc.a(_call_via_rX.o)
 .ARM.attributes
                0x00000675       0x1e c:/devkitpro/devkitarm/bin/../lib/gcc/arm-eabi/4.1.1/../../../../arm-eabi/lib\libg.a(lib_a-calloc.o)
 .ARM.attributes
                0x00000693       0x1e c:/devkitpro/devkitarm/bin/../lib/gcc/arm-eabi/4.1.1/../../../../arm-eabi/lib\libg.a(lib_a-callocr.o)
 .ARM.attributes
                0x000006b1       0x1c c:/devkitpro/devkitarm/bin/../lib/gcc/arm-eabi/4.1.1/../../../../arm-eabi/lib\libg.a(lib_a-ctype_.o)
 .ARM.attributes
                0x000006cd       0x1e c:/devkitpro/devkitarm/bin/../lib/gcc/arm-eabi/4.1.1/../../../../arm-eabi/lib\libg.a(lib_a-fclose.o)
 .ARM.attributes
                0x000006eb       0x1e c:/devkitpro/devkitarm/bin/../lib/gcc/arm-eabi/4.1.1/../../../../arm-eabi/lib\libg.a(lib_a-fflush.o)
 .ARM.attributes
                0x00000709       0x1e c:/devkitpro/devkitarm/bin/../lib/gcc/arm-eabi/4.1.1/../../../../arm-eabi/lib\libg.a(lib_a-findfp.o)
 .ARM.attributes
                0x00000727       0x1e c:/devkitpro/devkitarm/bin/../lib/gcc/arm-eabi/4.1.1/../../../../arm-eabi/lib\libg.a(lib_a-fopen.o)
 .ARM.attributes
                0x00000745       0x1e c:/devkitpro/devkitarm/bin/../lib/gcc/arm-eabi/4.1.1/../../../../arm-eabi/lib\libg.a(lib_a-fread.o)
 .ARM.attributes
                0x00000763       0x1e c:/devkitpro/devkitarm/bin/../lib/gcc/arm-eabi/4.1.1/../../../../arm-eabi/lib\libg.a(lib_a-freer.o)
 .ARM.attributes
                0x00000781       0x1e c:/devkitpro/devkitarm/bin/../lib/gcc/arm-eabi/4.1.1/../../../../arm-eabi/lib\libg.a(lib_a-fseek.o)
 .ARM.attributes
                0x0000079f       0x1e c:/devkitpro/devkitarm/bin/../lib/gcc/arm-eabi/4.1.1/../../../../arm-eabi/lib\libg.a(lib_a-fstatr.o)
 .ARM.attributes
                0x000007bd       0x1e c:/devkitpro/devkitarm/bin/../lib/gcc/arm-eabi/4.1.1/../../../../arm-eabi/lib\libg.a(lib_a-ftell.o)
 .ARM.attributes
                0x000007db       0x1e c:/devkitpro/devkitarm/bin/../lib/gcc/arm-eabi/4.1.1/../../../../arm-eabi/lib\libg.a(lib_a-fwalk.o)
 .ARM.attributes
                0x000007f9       0x1e c:/devkitpro/devkitarm/bin/../lib/gcc/arm-eabi/4.1.1/../../../../arm-eabi/lib\libg.a(lib_a-fwrite.o)
 .ARM.attributes
                0x00000817       0x1c c:/devkitpro/devkitarm/bin/../lib/gcc/arm-eabi/4.1.1/../../../../arm-eabi/lib\libg.a(lib_a-impure.o)
 .ARM.attributes
                0x00000833       0x1e c:/devkitpro/devkitarm/bin/../lib/gcc/arm-eabi/4.1.1/../../../../arm-eabi/lib\libg.a(lib_a-init.o)
 .ARM.attributes
                0x00000851       0x1e c:/devkitpro/devkitarm/bin/../lib/gcc/arm-eabi/4.1.1/../../../../arm-eabi/lib\libg.a(lib_a-iprintf.o)
 .ARM.attributes
                0x0000086f       0x1e c:/devkitpro/devkitarm/bin/../lib/gcc/arm-eabi/4.1.1/../../../../arm-eabi/lib\libg.a(lib_a-makebuf.o)
 .ARM.attributes
                0x0000088d       0x1e c:/devkitpro/devkitarm/bin/../lib/gcc/arm-eabi/4.1.1/../../../../arm-eabi/lib\libg.a(lib_a-malloc.o)
 .ARM.attributes
                0x000008ab       0x1e c:/devkitpro/devkitarm/bin/../lib/gcc/arm-eabi/4.1.1/../../../../arm-eabi/lib\libg.a(lib_a-mallocr.o)
 .ARM.attributes
                0x000008c9       0x1e c:/devkitpro/devkitarm/bin/../lib/gcc/arm-eabi/4.1.1/../../../../arm-eabi/lib\libg.a(lib_a-memcmp.o)
 .ARM.attributes
                0x000008e7       0x1e c:/devkitpro/devkitarm/bin/../lib/gcc/arm-eabi/4.1.1/../../../../arm-eabi/lib\libg.a(lib_a-memcpy.o)
 .ARM.attributes
                0x00000905       0x1e c:/devkitpro/devkitarm/bin/../lib/gcc/arm-eabi/4.1.1/../../../../arm-eabi/lib\libg.a(lib_a-memmove.o)
 .ARM.attributes
                0x00000923       0x1e c:/devkitpro/devkitarm/bin/../lib/gcc/arm-eabi/4.1.1/../../../../arm-eabi/lib\libg.a(lib_a-memset.o)
 .ARM.attributes
                0x00000941       0x1e c:/devkitpro/devkitarm/bin/../lib/gcc/arm-eabi/4.1.1/../../../../arm-eabi/lib\libg.a(lib_a-mlock.o)
 .ARM.attributes
                0x0000095f       0x1e c:/devkitpro/devkitarm/bin/../lib/gcc/arm-eabi/4.1.1/../../../../arm-eabi/lib\libg.a(lib_a-openr.o)
 .ARM.attributes
                0x0000097d       0x1e c:/devkitpro/devkitarm/bin/../lib/gcc/arm-eabi/4.1.1/../../../../arm-eabi/lib\libg.a(lib_a-printf.o)
 .ARM.attributes
                0x0000099b       0x1e c:/devkitpro/devkitarm/bin/../lib/gcc/arm-eabi/4.1.1/../../../../arm-eabi/lib\libg.a(lib_a-reent.o)
 .ARM.attributes
                0x000009b9       0x1e c:/devkitpro/devkitarm/bin/../lib/gcc/arm-eabi/4.1.1/../../../../arm-eabi/lib\libg.a(lib_a-refill.o)
 .ARM.attributes
                0x000009d7       0x1e c:/devkitpro/devkitarm/bin/../lib/gcc/arm-eabi/4.1.1/../../../../arm-eabi/lib\libg.a(lib_a-sbrkr.o)
 .ARM.attributes
                0x000009f5       0x1e c:/devkitpro/devkitarm/bin/../lib/gcc/arm-eabi/4.1.1/../../../../arm-eabi/lib\libg.a(lib_a-setvbuf.o)
 .ARM.attributes
                0x00000a13       0x1e c:/devkitpro/devkitarm/bin/../lib/gcc/arm-eabi/4.1.1/../../../../arm-eabi/lib\libg.a(lib_a-siprintf.o)
 .ARM.attributes
                0x00000a31       0x1e c:/devkitpro/devkitarm/bin/../lib/gcc/arm-eabi/4.1.1/../../../../arm-eabi/lib\libg.a(lib_a-siscanf.o)
 .ARM.attributes
                0x00000a4f       0x1e c:/devkitpro/devkitarm/bin/../lib/gcc/arm-eabi/4.1.1/../../../../arm-eabi/lib\libg.a(lib_a-sprintf.o)
 .ARM.attributes
                0x00000a6d       0x1e c:/devkitpro/devkitarm/bin/../lib/gcc/arm-eabi/4.1.1/../../../../arm-eabi/lib\libg.a(lib_a-stdio.o)
 .ARM.attributes
                0x00000a8b       0x1e c:/devkitpro/devkitarm/bin/../lib/gcc/arm-eabi/4.1.1/../../../../arm-eabi/lib\libg.a(lib_a-strcasecmp.o)
 .ARM.attributes
                0x00000aa9       0x1e c:/devkitpro/devkitarm/bin/../lib/gcc/arm-eabi/4.1.1/../../../../arm-eabi/lib\libg.a(lib_a-strcat.o)
 .ARM.attributes
                0x00000ac7       0x1e c:/devkitpro/devkitarm/bin/../lib/gcc/arm-eabi/4.1.1/../../../../arm-eabi/lib\libg.a(lib_a-strchr.o)
 .ARM.attributes
                0x00000ae5       0x1e c:/devkitpro/devkitarm/bin/../lib/gcc/arm-eabi/4.1.1/../../../../arm-eabi/lib\libg.a(lib_a-strcpy.o)
 .ARM.attributes
                0x00000b03       0x1e c:/devkitpro/devkitarm/bin/../lib/gcc/arm-eabi/4.1.1/../../../../arm-eabi/lib\libg.a(lib_a-strlcat.o)
 .ARM.attributes
                0x00000b21       0x1e c:/devkitpro/devkitarm/bin/../lib/gcc/arm-eabi/4.1.1/../../../../arm-eabi/lib\libg.a(lib_a-strlcpy.o)
 .ARM.attributes
                0x00000b3f       0x1e c:/devkitpro/devkitarm/bin/../lib/gcc/arm-eabi/4.1.1/../../../../arm-eabi/lib\libg.a(lib_a-strlen.o)
 .ARM.attributes
                0x00000b5d       0x1e c:/devkitpro/devkitarm/bin/../lib/gcc/arm-eabi/4.1.1/../../../../arm-eabi/lib\libg.a(lib_a-strncasecmp.o)
 .ARM.attributes
                0x00000b7b       0x1e c:/devkitpro/devkitarm/bin/../lib/gcc/arm-eabi/4.1.1/../../../../arm-eabi/lib\libg.a(lib_a-strncat.o)
 .ARM.attributes
                0x00000b99       0x1e c:/devkitpro/devkitarm/bin/../lib/gcc/arm-eabi/4.1.1/../../../../arm-eabi/lib\libg.a(lib_a-strncmp.o)
 .ARM.attributes
                0x00000bb7       0x1e c:/devkitpro/devkitarm/bin/../lib/gcc/arm-eabi/4.1.1/../../../../arm-eabi/lib\libg.a(lib_a-strncpy.o)
 .ARM.attributes
                0x00000bd5       0x1e c:/devkitpro/devkitarm/bin/../lib/gcc/arm-eabi/4.1.1/../../../../arm-eabi/lib\libg.a(lib_a-strnlen.o)
 .ARM.attributes
                0x00000bf3       0x1e c:/devkitpro/devkitarm/bin/../lib/gcc/arm-eabi/4.1.1/../../../../arm-eabi/lib\libg.a(lib_a-strpbrk.o)
 .ARM.attributes
                0x00000c11       0x1e c:/devkitpro/devkitarm/bin/../lib/gcc/arm-eabi/4.1.1/../../../../arm-eabi/lib\libg.a(lib_a-strrchr.o)
 .ARM.attributes
                0x00000c2f       0x1e c:/devkitpro/devkitarm/bin/../lib/gcc/arm-eabi/4.1.1/../../../../arm-eabi/lib\libg.a(lib_a-strtol.o)
 .ARM.attributes
                0x00000c4d       0x1e c:/devkitpro/devkitarm/bin/../lib/gcc/arm-eabi/4.1.1/../../../../arm-eabi/lib\libg.a(lib_a-strupr.o)
 .ARM.attributes
                0x00000c6b       0x1e c:/devkitpro/devkitarm/bin/../lib/gcc/arm-eabi/4.1.1/../../../../arm-eabi/lib\libg.a(lib_a-vfiprintf.o)
 .ARM.attributes
                0x00000c89       0x1e c:/devkitpro/devkitarm/bin/../lib/gcc/arm-eabi/4.1.1/../../../../arm-eabi/lib\libg.a(lib_a-vfiscanf.o)
 .ARM.attributes
                0x00000ca7       0x1e c:/devkitpro/devkitarm/bin/../lib/gcc/arm-eabi/4.1.1/../../../../arm-eabi/lib\libg.a(lib_a-vfprintf.o)
 .ARM.attributes
                0x00000cc5       0x1e c:/devkitpro/devkitarm/bin/../lib/gcc/arm-eabi/4.1.1/../../../../arm-eabi/lib\libg.a(lib_a-wcrtomb.o)
 .ARM.attributes
                0x00000ce3       0x1e c:/devkitpro/devkitarm/bin/../lib/gcc/arm-eabi/4.1.1/../../../../arm-eabi/lib\libg.a(lib_a-wcsrtombs.o)
 .ARM.attributes
                0x00000d01       0x1e c:/devkitpro/devkitarm/bin/../lib/gcc/arm-eabi/4.1.1/../../../../arm-eabi/lib\libg.a(lib_a-wctomb_r.o)
 .ARM.attributes
                0x00000d1f       0x1e c:/devkitpro/devkitarm/bin/../lib/gcc/arm-eabi/4.1.1/../../../../arm-eabi/lib\libg.a(lib_a-writer.o)
 .ARM.attributes
                0x00000d3d       0x1e c:/devkitpro/devkitarm/bin/../lib/gcc/arm-eabi/4.1.1/../../../../arm-eabi/lib\libg.a(lib_a-wsetup.o)
 .ARM.attributes
                0x00000d5b       0x1e c:/devkitpro/devkitarm/bin/../lib/gcc/arm-eabi/4.1.1/../../../../arm-eabi/lib\libg.a(lib_a-closer.o)
 .ARM.attributes
                0x00000d79       0x1e c:/devkitpro/devkitarm/bin/../lib/gcc/arm-eabi/4.1.1/../../../../arm-eabi/lib\libg.a(lib_a-dtoa.o)
 .ARM.attributes
                0x00000d97       0x1e c:/devkitpro/devkitarm/bin/../lib/gcc/arm-eabi/4.1.1/../../../../arm-eabi/lib\libg.a(lib_a-flags.o)
 .ARM.attributes
                0x00000db5       0x1e c:/devkitpro/devkitarm/bin/../lib/gcc/arm-eabi/4.1.1/../../../../arm-eabi/lib\libg.a(lib_a-fvwrite.o)
 .ARM.attributes
                0x00000dd3       0x1e c:/devkitpro/devkitarm/bin/../lib/gcc/arm-eabi/4.1.1/../../../../arm-eabi/lib\libg.a(lib_a-iswspace.o)
 .ARM.attributes
                0x00000df1       0x1e c:/devkitpro/devkitarm/bin/../lib/gcc/arm-eabi/4.1.1/../../../../arm-eabi/lib\libg.a(lib_a-locale.o)
 .ARM.attributes
                0x00000e0f       0x1e c:/devkitpro/devkitarm/bin/../lib/gcc/arm-eabi/4.1.1/../../../../arm-eabi/lib\libg.a(lib_a-lseekr.o)
 .ARM.attributes
                0x00000e2d       0x1e c:/devkitpro/devkitarm/bin/../lib/gcc/arm-eabi/4.1.1/../../../../arm-eabi/lib\libg.a(lib_a-mbrtowc.o)
 .ARM.attributes
                0x00000e4b       0x1e c:/devkitpro/devkitarm/bin/../lib/gcc/arm-eabi/4.1.1/../../../../arm-eabi/lib\libg.a(lib_a-mbtowc_r.o)
 .ARM.attributes
                0x00000e69       0x1e c:/devkitpro/devkitarm/bin/../lib/gcc/arm-eabi/4.1.1/../../../../arm-eabi/lib\libg.a(lib_a-memchr.o)
 .ARM.attributes
                0x00000e87       0x1e c:/devkitpro/devkitarm/bin/../lib/gcc/arm-eabi/4.1.1/../../../../arm-eabi/lib\libg.a(lib_a-mprec.o)
 .ARM.attributes
                0x00000ea5       0x1e c:/devkitpro/devkitarm/bin/../lib/gcc/arm-eabi/4.1.1/../../../../arm-eabi/lib\libg.a(lib_a-readr.o)
 .ARM.attributes
                0x00000ec3       0x1e c:/devkitpro/devkitarm/bin/../lib/gcc/arm-eabi/4.1.1/../../../../arm-eabi/lib\libg.a(lib_a-reallocr.o)
 .ARM.attributes
                0x00000ee1       0x1e c:/devkitpro/devkitarm/bin/../lib/gcc/arm-eabi/4.1.1/../../../../arm-eabi/lib\libg.a(lib_a-s_isinfd.o)
 .ARM.attributes
                0x00000eff       0x1e c:/devkitpro/devkitarm/bin/../lib/gcc/arm-eabi/4.1.1/../../../../arm-eabi/lib\libg.a(lib_a-s_isnand.o)
 .ARM.attributes
                0x00000f1d       0x1e c:/devkitpro/devkitarm/bin/../lib/gcc/arm-eabi/4.1.1/../../../../arm-eabi/lib\libg.a(lib_a-sccl.o)
 .ARM.attributes
                0x00000f3b       0x1e c:/devkitpro/devkitarm/bin/../lib/gcc/arm-eabi/4.1.1/../../../../arm-eabi/lib\libg.a(lib_a-strcmp.o)
 .ARM.attributes
                0x00000f59       0x1e c:/devkitpro/devkitarm/bin/../lib/gcc/arm-eabi/4.1.1/../../../../arm-eabi/lib\libg.a(lib_a-strtoul.o)
 .ARM.attributes
                0x00000f77       0x1e c:/devkitpro/devkitarm/bin/../lib/gcc/arm-eabi/4.1.1/../../../../arm-eabi/lib\libg.a(lib_a-ungetc.o)
 .ARM.attributes
                0x00000f95       0x1e c:/devkitpro/devkitarm/bin/../lib/gcc/arm-eabi/4.1.1\libgcc.a(_addsubdf3.o)
 .ARM.attributes
                0x00000fb3       0x1e c:/devkitpro/devkitarm/bin/../lib/gcc/arm-eabi/4.1.1\libgcc.a(_muldivdf3.o)
 .ARM.attributes
                0x00000fd1       0x1e c:/devkitpro/devkitarm/bin/../lib/gcc/arm-eabi/4.1.1\libgcc.a(_cmpdf2.o)
 .ARM.attributes
                0x00000fef       0x1e c:/devkitpro/devkitarm/bin/../lib/gcc/arm-eabi/4.1.1\libgcc.a(_fixdfsi.o)
 .ARM.attributes
                0x0000100d       0x1e c:/devkitpro/devkitarm/bin/../lib/gcc/arm-eabi/4.1.1/../../../../arm-eabi/lib\libsysbase.a(iosupport.o)
 .ARM.attributes
                0x0000102b       0x1e c:/devkitpro/devkitarm/bin/../lib/gcc/arm-eabi/4.1.1/../../../../arm-eabi/lib\libsysbase.a(close.o)
 .ARM.attributes
                0x00001049       0x1e c:/devkitpro/devkitarm/bin/../lib/gcc/arm-eabi/4.1.1/../../../../arm-eabi/lib\libsysbase.a(fstat.o)
 .ARM.attributes
                0x00001067       0x1e c:/devkitpro/devkitarm/bin/../lib/gcc/arm-eabi/4.1.1/../../../../arm-eabi/lib\libsysbase.a(isatty.o)
 .ARM.attributes
                0x00001085       0x1e c:/devkitpro/devkitarm/bin/../lib/gcc/arm-eabi/4.1.1/../../../../arm-eabi/lib\libsysbase.a(lseek.o)
 .ARM.attributes
                0x000010a3       0x1e c:/devkitpro/devkitarm/bin/../lib/gcc/arm-eabi/4.1.1/../../../../arm-eabi/lib\libsysbase.a(open.o)
 .ARM.attributes
                0x000010c1       0x1e c:/devkitpro/devkitarm/bin/../lib/gcc/arm-eabi/4.1.1/../../../../arm-eabi/lib\libsysbase.a(read.o)
 .ARM.attributes
                0x000010df       0x1e c:/devkitpro/devkitarm/bin/../lib/gcc/arm-eabi/4.1.1/../../../../arm-eabi/lib\libsysbase.a(sbrk.o)
 .ARM.attributes
                0x000010fd       0x1e c:/devkitpro/devkitarm/bin/../lib/gcc/arm-eabi/4.1.1/../../../../arm-eabi/lib\libsysbase.a(write.o)
 .ARM.attributes
                0x0000111b       0x1c c:/devkitpro/devkitarm/bin/../lib/gcc/arm-eabi/4.1.1/../../../../arm-eabi/lib\libsysbase.a(malloc_vars.o)
 .ARM.attributes
                0x00001137       0x1e c:/devkitpro/devkitarm/bin/../lib/gcc/arm-eabi/4.1.1/../../../../arm-eabi/lib\libsysbase.a(chdir.o)
 .ARM.attributes
                0x00001155       0x1e c:/devkitpro/devkitarm/bin/../lib/gcc/arm-eabi/4.1.1/../../../../arm-eabi/lib\libsysbase.a(dir.o)
 .ARM.attributes
                0x00001173       0x1c c:/devkitpro/devkitarm/bin/../lib/gcc/arm-eabi/4.1.1/crtend.o
 .ARM.attributes
                0x0000118f       0x1e c:/devkitpro/devkitarm/bin/../lib/gcc/arm-eabi/4.1.1/crtn.o

.debug_ranges   0x00000000      0xb18
 .debug_ranges  0x00000000       0x30 C:/devkitPro/libnds/lib\libfat.a(partition.o)
 .debug_ranges  0x00000030       0x30 C:/devkitPro/libnds/lib\libfat.a(io_m3sd.o)
 .debug_ranges  0x00000060      0x258 C:/devkitPro/libnds/lib\libfat.a(io_njsd.o)
 .debug_ranges  0x000002b8      0x268 C:/devkitPro/libnds/lib\libfat.a(io_nmmc.o)
 .debug_ranges  0x00000520       0x30 C:/devkitPro/libnds/lib\libfat.a(io_scsd.o)
 .debug_ranges  0x00000550       0x30 C:/devkitPro/libnds/lib\libfat.a(cache.o)
 .debug_ranges  0x00000580       0xb0 C:/devkitPro/libnds/lib\libfat.a(fatdir.o)
 .debug_ranges  0x00000630      0x298 C:/devkitPro/libnds/lib\libfat.a(fatfile.o)
 .debug_ranges  0x000008c8       0x18 C:/devkitPro/libnds/lib\libfat.a(file_allocation_table.o)
 .debug_ranges  0x000008e0      0x148 C:/devkitPro/libnds/lib\libfat.a(directory.o)
 .debug_ranges  0x00000a28       0x88 C:/devkitPro/libnds/lib\libnds9.a(console.o)
 .debug_ranges  0x00000ab0       0x68 C:/devkitPro/libnds/lib\libnds9.a(card.o)
